

Microchip MPLAB XC8 Assembler V3.10 build 20250813170317 
                                                                                               Fri Jan  9 08:30:35 2026

Microchip MPLAB XC8 C Compiler v3.10 (Free license) build 20250813170317 Og1 
     1                           	processor	18F4550
     2                           	fnconf	rparam,??,?,0
     3                           	pagewidth 120
     4                           	opt	flic
     5                           	psect	idataCOMRAM,global,class=CODE,space=0,delta=1,noexec
     6                           	psect	idataBANK0,global,class=CODE,space=0,delta=1,noexec
     7                           	psect	smallconst,global,reloc=2,class=SMALLCONST,space=0,delta=1,noexec
     8                           	psect	cinit,global,reloc=2,class=CODE,space=0,delta=1
     9                           	psect	bssCOMRAM,global,class=COMRAM,space=1,delta=1,lowdata,noexec
    10                           	psect	dataCOMRAM,global,class=COMRAM,space=1,delta=1,lowdata,noexec
    11                           	psect	dataBANK0,global,class=BANK0,space=1,delta=1,lowdata,noexec
    12                           	psect	cstackCOMRAM,global,class=COMRAM,space=1,delta=1,lowdata,noexec
    13                           	psect	text0,global,reloc=2,class=CODE,space=0,delta=1
    14                           	psect	text1,global,reloc=2,class=CODE,space=0,delta=1
    15                           	psect	text2,global,reloc=2,class=CODE,space=0,delta=1
    16                           	psect	text3,global,reloc=2,class=CODE,space=0,delta=1
    17                           	psect	text4,global,reloc=2,class=CODE,space=0,delta=1
    18                           	psect	text5,global,reloc=2,class=CODE,space=0,delta=1
    19                           	psect	text6,global,reloc=2,class=CODE,space=0,delta=1
    20                           	psect	text7,global,reloc=2,class=CODE,space=0,delta=1
    21                           	psect	text8,global,reloc=2,class=CODE,space=0,delta=1
    22                           	psect	text9,global,reloc=2,class=CODE,space=0,delta=1,group=1
    23                           	psect	text10,global,reloc=2,class=CODE,space=0,delta=1,group=1
    24                           	psect	text11,global,reloc=2,class=CODE,space=0,delta=1
    25                           	psect	text12,global,reloc=2,class=CODE,space=0,delta=1,group=2
    26                           	psect	text13,global,reloc=2,class=CODE,space=0,delta=1
    27                           	psect	text14,global,reloc=2,class=CODE,space=0,delta=1
    28                           	psect	text15,global,reloc=2,class=CODE,space=0,delta=1
    29                           	psect	text16,global,reloc=2,class=CODE,space=0,delta=1,group=1
    30                           	psect	text17,global,reloc=2,class=CODE,space=0,delta=1
    31                           	psect	text18,global,reloc=2,class=CODE,space=0,delta=1
    32                           	psect	text19,global,reloc=2,class=CODE,space=0,delta=1
    33                           	psect	text20,global,reloc=2,class=CODE,space=0,delta=1
    34                           	psect	text21,global,reloc=2,class=CODE,space=0,delta=1
    35                           	psect	text22,global,reloc=2,class=CODE,space=0,delta=1
    36                           	psect	text23,global,reloc=2,class=CODE,space=0,delta=1
    37                           	psect	text24,global,reloc=2,class=CODE,space=0,delta=1
    38                           	psect	text25,global,reloc=2,class=CODE,space=0,delta=1
    39                           	psect	text26,global,reloc=2,class=CODE,space=0,delta=1
    40                           	psect	text27,global,reloc=2,class=CODE,space=0,delta=1
    41                           	psect	text28,global,reloc=2,class=CODE,space=0,delta=1,group=1
    42                           	psect	text29,global,reloc=2,class=CODE,space=0,delta=1
    43                           	psect	intsave_regs,global,class=BIGRAM,space=1,delta=1,noexec
    44                           	psect	rparam,global,class=COMRAM,space=1,delta=1,noexec
    45                           	psect	config,global,abs,ovrld,class=CONFIG,space=4,delta=1,noexec
    46   000000                     
    47                           ; Generated 17/01/2025 GMT
    48                           ; 
    49                           ; Copyright © 2025, Microchip Technology Inc. and its subsidiaries ("Microchip")
    50                           ; All rights reserved.
    51                           ; 
    52                           ; This software is developed by Microchip Technology Inc. and its subsidiaries ("Microch
      +                          ip").
    53                           ; 
    54                           ; Redistribution and use in source and binary forms, with or without modification, are
    55                           ; permitted provided that the following conditions are met:
    56                           ; 
    57                           ;     1. Redistributions of source code must retain the above copyright notice, this lis
      +                          t of
    58                           ;        conditions and the following disclaimer.
    59                           ; 
    60                           ;     2. Redistributions in binary form must reproduce the above copyright notice, this 
      +                          list
    61                           ;        of conditions and the following disclaimer in the documentation and/or other
    62                           ;        materials provided with the distribution. Publication is not required when
    63                           ;        this file is used in an embedded application.
    64                           ; 
    65                           ;     3. Microchip's name may not be used to endorse or promote products derived from th
      +                          is
    66                           ;        software without specific prior written permission.
    67                           ; 
    68                           ; THIS SOFTWARE IS PROVIDED BY MICROCHIP "AS IS" AND ANY EXPRESS OR IMPLIED WARRANTIES,
    69                           ; INCLUDING, BUT NOT LIMITED TO, THE IMPLIED WARRANTIES OF MERCHANTABILITY AND FITNESS F
      +                          OR
    70                           ; PURPOSE ARE DISCLAIMED.  IN NO EVENT SHALL MICROCHIP BE LIABLE FOR ANY DIRECT, INDIREC
      +                          T,
    71                           ; INCIDENTAL, SPECIAL, EXEMPLARY, OR CONSEQUENTIAL DAMAGES (INCLUDING BUT NOT LIMITED TO
    72                           ; PROCUREMENT OF SUBSTITUTE GOODS OR SERVICES; LOSS OF USE, DATA OR PROFITS; OR BUSINESS
    73                           ; INTERRUPTION) HOWSOEVER CAUSED AND ON ANY THEORY OF LIABILITY, WHETHER IN CONTRACT, ST
      +                          RICT
    74                           ; LIABILITY, OR TORT (INCLUDING NEGLIGENCE OR OTHERWISE) ARISING IN ANY WAY OUT OF THE U
      +                          SE OF
    75                           ; THIS SOFTWARE, EVEN IF ADVISED OF THE POSSIBILITY OF SUCH DAMAGE.
    76                           ; 
    77                           ; 
    78                           ; Code-generator required, PIC18F4550 Definitions
    79                           ; 
    80                           ; SFR Addresses
    81   000FE0                     bsr             equ	4064
    82   000FE9                     fsr0            equ	4073
    83   000FEA                     fsr0h           equ	4074
    84   000FE9                     fsr0l           equ	4073
    85   000FE1                     fsr1            equ	4065
    86   000FE2                     fsr1h           equ	4066
    87   000FE1                     fsr1l           equ	4065
    88   000FD9                     fsr2            equ	4057
    89   000FDA                     fsr2h           equ	4058
    90   000FD9                     fsr2l           equ	4057
    91   000FEF                     indf0           equ	4079
    92   000FE7                     indf1           equ	4071
    93   000FDF                     indf2           equ	4063
    94   000FF2                     intcon          equ	4082
    95   000000                     nvmcon          equ	0
    96   000FF9                     pcl             equ	4089
    97   000FFA                     pclath          equ	4090
    98   000FFB                     pclatu          equ	4091
    99   000FEB                     plusw0          equ	4075
   100   000FE3                     plusw1          equ	4067
   101   000FDB                     plusw2          equ	4059
   102   000FED                     postdec0        equ	4077
   103   000FE5                     postdec1        equ	4069
   104   000FDD                     postdec2        equ	4061
   105   000FEE                     postinc0        equ	4078
   106   000FE6                     postinc1        equ	4070
   107   000FDE                     postinc2        equ	4062
   108   000FEC                     preinc0         equ	4076
   109   000FE4                     preinc1         equ	4068
   110   000FDC                     preinc2         equ	4060
   111   000FF3                     prod            equ	4083
   112   000FF4                     prodh           equ	4084
   113   000FF3                     prodl           equ	4083
   114   000FD8                     status          equ	4056
   115   000FF5                     tablat          equ	4085
   116   000FF6                     tblptr          equ	4086
   117   000FF7                     tblptrh         equ	4087
   118   000FF6                     tblptrl         equ	4086
   119   000FF8                     tblptru         equ	4088
   120   000FFD                     tosl            equ	4093
   121   000FE8                     wreg            equ	4072
   122   000F62                     SPPDATA         equ	3938	;# 
   123   000F63                     SPPCFG          equ	3939	;# 
   124   000F64                     SPPEPS          equ	3940	;# 
   125   000F65                     SPPCON          equ	3941	;# 
   126   000F66                     UFRM            equ	3942	;# 
   127   000F66                     UFRML           equ	3942	;# 
   128   000F67                     UFRMH           equ	3943	;# 
   129   000F68                     UIR             equ	3944	;# 
   130   000F69                     UIE             equ	3945	;# 
   131   000F6A                     UEIR            equ	3946	;# 
   132   000F6B                     UEIE            equ	3947	;# 
   133   000F6C                     USTAT           equ	3948	;# 
   134   000F6D                     UCON            equ	3949	;# 
   135   000F6E                     UADDR           equ	3950	;# 
   136   000F6F                     UCFG            equ	3951	;# 
   137   000F70                     UEP0            equ	3952	;# 
   138   000F71                     UEP1            equ	3953	;# 
   139   000F72                     UEP2            equ	3954	;# 
   140   000F73                     UEP3            equ	3955	;# 
   141   000F74                     UEP4            equ	3956	;# 
   142   000F75                     UEP5            equ	3957	;# 
   143   000F76                     UEP6            equ	3958	;# 
   144   000F77                     UEP7            equ	3959	;# 
   145   000F78                     UEP8            equ	3960	;# 
   146   000F79                     UEP9            equ	3961	;# 
   147   000F7A                     UEP10           equ	3962	;# 
   148   000F7B                     UEP11           equ	3963	;# 
   149   000F7C                     UEP12           equ	3964	;# 
   150   000F7D                     UEP13           equ	3965	;# 
   151   000F7E                     UEP14           equ	3966	;# 
   152   000F7F                     UEP15           equ	3967	;# 
   153   000F80                     PORTA           equ	3968	;# 
   154   000F81                     PORTB           equ	3969	;# 
   155   000F82                     PORTC           equ	3970	;# 
   156   000F83                     PORTD           equ	3971	;# 
   157   000F84                     PORTE           equ	3972	;# 
   158   000F89                     LATA            equ	3977	;# 
   159   000F8A                     LATB            equ	3978	;# 
   160   000F8B                     LATC            equ	3979	;# 
   161   000F8C                     LATD            equ	3980	;# 
   162   000F8D                     LATE            equ	3981	;# 
   163   000F92                     TRISA           equ	3986	;# 
   164   000F92                     DDRA            equ	3986	;# 
   165   000F93                     TRISB           equ	3987	;# 
   166   000F93                     DDRB            equ	3987	;# 
   167   000F94                     TRISC           equ	3988	;# 
   168   000F94                     DDRC            equ	3988	;# 
   169   000F95                     TRISD           equ	3989	;# 
   170   000F95                     DDRD            equ	3989	;# 
   171   000F96                     TRISE           equ	3990	;# 
   172   000F96                     DDRE            equ	3990	;# 
   173   000F9B                     OSCTUNE         equ	3995	;# 
   174   000F9D                     PIE1            equ	3997	;# 
   175   000F9E                     PIR1            equ	3998	;# 
   176   000F9F                     IPR1            equ	3999	;# 
   177   000FA0                     PIE2            equ	4000	;# 
   178   000FA1                     PIR2            equ	4001	;# 
   179   000FA2                     IPR2            equ	4002	;# 
   180   000FA6                     EECON1          equ	4006	;# 
   181   000FA7                     EECON2          equ	4007	;# 
   182   000FA8                     EEDATA          equ	4008	;# 
   183   000FA9                     EEADR           equ	4009	;# 
   184   000FAB                     RCSTA           equ	4011	;# 
   185   000FAB                     RCSTA1          equ	4011	;# 
   186   000FAC                     TXSTA           equ	4012	;# 
   187   000FAC                     TXSTA1          equ	4012	;# 
   188   000FAD                     TXREG           equ	4013	;# 
   189   000FAD                     TXREG1          equ	4013	;# 
   190   000FAE                     RCREG           equ	4014	;# 
   191   000FAE                     RCREG1          equ	4014	;# 
   192   000FAF                     SPBRG           equ	4015	;# 
   193   000FAF                     SPBRG1          equ	4015	;# 
   194   000FB0                     SPBRGH          equ	4016	;# 
   195   000FB1                     T3CON           equ	4017	;# 
   196   000FB2                     TMR3            equ	4018	;# 
   197   000FB2                     TMR3L           equ	4018	;# 
   198   000FB3                     TMR3H           equ	4019	;# 
   199   000FB4                     CMCON           equ	4020	;# 
   200   000FB5                     CVRCON          equ	4021	;# 
   201   000FB6                     ECCP1AS         equ	4022	;# 
   202   000FB6                     CCP1AS          equ	4022	;# 
   203   000FB7                     ECCP1DEL        equ	4023	;# 
   204   000FB7                     CCP1DEL         equ	4023	;# 
   205   000FB8                     BAUDCON         equ	4024	;# 
   206   000FB8                     BAUDCTL         equ	4024	;# 
   207   000FBA                     CCP2CON         equ	4026	;# 
   208   000FBB                     CCPR2           equ	4027	;# 
   209   000FBB                     CCPR2L          equ	4027	;# 
   210   000FBC                     CCPR2H          equ	4028	;# 
   211   000FBD                     CCP1CON         equ	4029	;# 
   212   000FBD                     ECCP1CON        equ	4029	;# 
   213   000FBE                     CCPR1           equ	4030	;# 
   214   000FBE                     CCPR1L          equ	4030	;# 
   215   000FBF                     CCPR1H          equ	4031	;# 
   216   000FC0                     ADCON2          equ	4032	;# 
   217   000FC1                     ADCON1          equ	4033	;# 
   218   000FC2                     ADCON0          equ	4034	;# 
   219   000FC3                     ADRES           equ	4035	;# 
   220   000FC3                     ADRESL          equ	4035	;# 
   221   000FC4                     ADRESH          equ	4036	;# 
   222   000FC5                     SSPCON2         equ	4037	;# 
   223   000FC6                     SSPCON1         equ	4038	;# 
   224   000FC7                     SSPSTAT         equ	4039	;# 
   225   000FC8                     SSPADD          equ	4040	;# 
   226   000FC9                     SSPBUF          equ	4041	;# 
   227   000FCA                     T2CON           equ	4042	;# 
   228   000FCB                     PR2             equ	4043	;# 
   229   000FCB                     MEMCON          equ	4043	;# 
   230   000FCC                     TMR2            equ	4044	;# 
   231   000FCD                     T1CON           equ	4045	;# 
   232   000FCE                     TMR1            equ	4046	;# 
   233   000FCE                     TMR1L           equ	4046	;# 
   234   000FCF                     TMR1H           equ	4047	;# 
   235   000FD0                     RCON            equ	4048	;# 
   236   000FD1                     WDTCON          equ	4049	;# 
   237   000FD2                     HLVDCON         equ	4050	;# 
   238   000FD2                     LVDCON          equ	4050	;# 
   239   000FD3                     OSCCON          equ	4051	;# 
   240   000FD5                     T0CON           equ	4053	;# 
   241   000FD6                     TMR0            equ	4054	;# 
   242   000FD6                     TMR0L           equ	4054	;# 
   243   000FD7                     TMR0H           equ	4055	;# 
   244   000FD8                     STATUS          equ	4056	;# 
   245   000FD9                     FSR2            equ	4057	;# 
   246   000FD9                     FSR2L           equ	4057	;# 
   247   000FDA                     FSR2H           equ	4058	;# 
   248   000FDB                     PLUSW2          equ	4059	;# 
   249   000FDC                     PREINC2         equ	4060	;# 
   250   000FDD                     POSTDEC2        equ	4061	;# 
   251   000FDE                     POSTINC2        equ	4062	;# 
   252   000FDF                     INDF2           equ	4063	;# 
   253   000FE0                     BSR             equ	4064	;# 
   254   000FE1                     FSR1            equ	4065	;# 
   255   000FE1                     FSR1L           equ	4065	;# 
   256   000FE2                     FSR1H           equ	4066	;# 
   257   000FE3                     PLUSW1          equ	4067	;# 
   258   000FE4                     PREINC1         equ	4068	;# 
   259   000FE5                     POSTDEC1        equ	4069	;# 
   260   000FE6                     POSTINC1        equ	4070	;# 
   261   000FE7                     INDF1           equ	4071	;# 
   262   000FE8                     WREG            equ	4072	;# 
   263   000FE9                     FSR0            equ	4073	;# 
   264   000FE9                     FSR0L           equ	4073	;# 
   265   000FEA                     FSR0H           equ	4074	;# 
   266   000FEB                     PLUSW0          equ	4075	;# 
   267   000FEC                     PREINC0         equ	4076	;# 
   268   000FED                     POSTDEC0        equ	4077	;# 
   269   000FEE                     POSTINC0        equ	4078	;# 
   270   000FEF                     INDF0           equ	4079	;# 
   271   000FF0                     INTCON3         equ	4080	;# 
   272   000FF1                     INTCON2         equ	4081	;# 
   273   000FF2                     INTCON          equ	4082	;# 
   274   000FF3                     PROD            equ	4083	;# 
   275   000FF3                     PRODL           equ	4083	;# 
   276   000FF4                     PRODH           equ	4084	;# 
   277   000FF5                     TABLAT          equ	4085	;# 
   278   000FF6                     TBLPTR          equ	4086	;# 
   279   000FF6                     TBLPTRL         equ	4086	;# 
   280   000FF7                     TBLPTRH         equ	4087	;# 
   281   000FF8                     TBLPTRU         equ	4088	;# 
   282   000FF9                     PCLAT           equ	4089	;# 
   283   000FF9                     PC              equ	4089	;# 
   284   000FF9                     PCL             equ	4089	;# 
   285   000FFA                     PCLATH          equ	4090	;# 
   286   000FFB                     PCLATU          equ	4091	;# 
   287   000FFC                     STKPTR          equ	4092	;# 
   288   000FFD                     TOS             equ	4093	;# 
   289   000FFD                     TOSL            equ	4093	;# 
   290   000FFE                     TOSH            equ	4094	;# 
   291   000FFF                     TOSU            equ	4095	;# 
   292   000F62                     SPPDATA         equ	3938	;# 
   293   000F63                     SPPCFG          equ	3939	;# 
   294   000F64                     SPPEPS          equ	3940	;# 
   295   000F65                     SPPCON          equ	3941	;# 
   296   000F66                     UFRM            equ	3942	;# 
   297   000F66                     UFRML           equ	3942	;# 
   298   000F67                     UFRMH           equ	3943	;# 
   299   000F68                     UIR             equ	3944	;# 
   300   000F69                     UIE             equ	3945	;# 
   301   000F6A                     UEIR            equ	3946	;# 
   302   000F6B                     UEIE            equ	3947	;# 
   303   000F6C                     USTAT           equ	3948	;# 
   304   000F6D                     UCON            equ	3949	;# 
   305   000F6E                     UADDR           equ	3950	;# 
   306   000F6F                     UCFG            equ	3951	;# 
   307   000F70                     UEP0            equ	3952	;# 
   308   000F71                     UEP1            equ	3953	;# 
   309   000F72                     UEP2            equ	3954	;# 
   310   000F73                     UEP3            equ	3955	;# 
   311   000F74                     UEP4            equ	3956	;# 
   312   000F75                     UEP5            equ	3957	;# 
   313   000F76                     UEP6            equ	3958	;# 
   314   000F77                     UEP7            equ	3959	;# 
   315   000F78                     UEP8            equ	3960	;# 
   316   000F79                     UEP9            equ	3961	;# 
   317   000F7A                     UEP10           equ	3962	;# 
   318   000F7B                     UEP11           equ	3963	;# 
   319   000F7C                     UEP12           equ	3964	;# 
   320   000F7D                     UEP13           equ	3965	;# 
   321   000F7E                     UEP14           equ	3966	;# 
   322   000F7F                     UEP15           equ	3967	;# 
   323   000F80                     PORTA           equ	3968	;# 
   324   000F81                     PORTB           equ	3969	;# 
   325   000F82                     PORTC           equ	3970	;# 
   326   000F83                     PORTD           equ	3971	;# 
   327   000F84                     PORTE           equ	3972	;# 
   328   000F89                     LATA            equ	3977	;# 
   329   000F8A                     LATB            equ	3978	;# 
   330   000F8B                     LATC            equ	3979	;# 
   331   000F8C                     LATD            equ	3980	;# 
   332   000F8D                     LATE            equ	3981	;# 
   333   000F92                     TRISA           equ	3986	;# 
   334   000F92                     DDRA            equ	3986	;# 
   335   000F93                     TRISB           equ	3987	;# 
   336   000F93                     DDRB            equ	3987	;# 
   337   000F94                     TRISC           equ	3988	;# 
   338   000F94                     DDRC            equ	3988	;# 
   339   000F95                     TRISD           equ	3989	;# 
   340   000F95                     DDRD            equ	3989	;# 
   341   000F96                     TRISE           equ	3990	;# 
   342   000F96                     DDRE            equ	3990	;# 
   343   000F9B                     OSCTUNE         equ	3995	;# 
   344   000F9D                     PIE1            equ	3997	;# 
   345   000F9E                     PIR1            equ	3998	;# 
   346   000F9F                     IPR1            equ	3999	;# 
   347   000FA0                     PIE2            equ	4000	;# 
   348   000FA1                     PIR2            equ	4001	;# 
   349   000FA2                     IPR2            equ	4002	;# 
   350   000FA6                     EECON1          equ	4006	;# 
   351   000FA7                     EECON2          equ	4007	;# 
   352   000FA8                     EEDATA          equ	4008	;# 
   353   000FA9                     EEADR           equ	4009	;# 
   354   000FAB                     RCSTA           equ	4011	;# 
   355   000FAB                     RCSTA1          equ	4011	;# 
   356   000FAC                     TXSTA           equ	4012	;# 
   357   000FAC                     TXSTA1          equ	4012	;# 
   358   000FAD                     TXREG           equ	4013	;# 
   359   000FAD                     TXREG1          equ	4013	;# 
   360   000FAE                     RCREG           equ	4014	;# 
   361   000FAE                     RCREG1          equ	4014	;# 
   362   000FAF                     SPBRG           equ	4015	;# 
   363   000FAF                     SPBRG1          equ	4015	;# 
   364   000FB0                     SPBRGH          equ	4016	;# 
   365   000FB1                     T3CON           equ	4017	;# 
   366   000FB2                     TMR3            equ	4018	;# 
   367   000FB2                     TMR3L           equ	4018	;# 
   368   000FB3                     TMR3H           equ	4019	;# 
   369   000FB4                     CMCON           equ	4020	;# 
   370   000FB5                     CVRCON          equ	4021	;# 
   371   000FB6                     ECCP1AS         equ	4022	;# 
   372   000FB6                     CCP1AS          equ	4022	;# 
   373   000FB7                     ECCP1DEL        equ	4023	;# 
   374   000FB7                     CCP1DEL         equ	4023	;# 
   375   000FB8                     BAUDCON         equ	4024	;# 
   376   000FB8                     BAUDCTL         equ	4024	;# 
   377   000FBA                     CCP2CON         equ	4026	;# 
   378   000FBB                     CCPR2           equ	4027	;# 
   379   000FBB                     CCPR2L          equ	4027	;# 
   380   000FBC                     CCPR2H          equ	4028	;# 
   381   000FBD                     CCP1CON         equ	4029	;# 
   382   000FBD                     ECCP1CON        equ	4029	;# 
   383   000FBE                     CCPR1           equ	4030	;# 
   384   000FBE                     CCPR1L          equ	4030	;# 
   385   000FBF                     CCPR1H          equ	4031	;# 
   386   000FC0                     ADCON2          equ	4032	;# 
   387   000FC1                     ADCON1          equ	4033	;# 
   388   000FC2                     ADCON0          equ	4034	;# 
   389   000FC3                     ADRES           equ	4035	;# 
   390   000FC3                     ADRESL          equ	4035	;# 
   391   000FC4                     ADRESH          equ	4036	;# 
   392   000FC5                     SSPCON2         equ	4037	;# 
   393   000FC6                     SSPCON1         equ	4038	;# 
   394   000FC7                     SSPSTAT         equ	4039	;# 
   395   000FC8                     SSPADD          equ	4040	;# 
   396   000FC9                     SSPBUF          equ	4041	;# 
   397   000FCA                     T2CON           equ	4042	;# 
   398   000FCB                     PR2             equ	4043	;# 
   399   000FCB                     MEMCON          equ	4043	;# 
   400   000FCC                     TMR2            equ	4044	;# 
   401   000FCD                     T1CON           equ	4045	;# 
   402   000FCE                     TMR1            equ	4046	;# 
   403   000FCE                     TMR1L           equ	4046	;# 
   404   000FCF                     TMR1H           equ	4047	;# 
   405   000FD0                     RCON            equ	4048	;# 
   406   000FD1                     WDTCON          equ	4049	;# 
   407   000FD2                     HLVDCON         equ	4050	;# 
   408   000FD2                     LVDCON          equ	4050	;# 
   409   000FD3                     OSCCON          equ	4051	;# 
   410   000FD5                     T0CON           equ	4053	;# 
   411   000FD6                     TMR0            equ	4054	;# 
   412   000FD6                     TMR0L           equ	4054	;# 
   413   000FD7                     TMR0H           equ	4055	;# 
   414   000FD8                     STATUS          equ	4056	;# 
   415   000FD9                     FSR2            equ	4057	;# 
   416   000FD9                     FSR2L           equ	4057	;# 
   417   000FDA                     FSR2H           equ	4058	;# 
   418   000FDB                     PLUSW2          equ	4059	;# 
   419   000FDC                     PREINC2         equ	4060	;# 
   420   000FDD                     POSTDEC2        equ	4061	;# 
   421   000FDE                     POSTINC2        equ	4062	;# 
   422   000FDF                     INDF2           equ	4063	;# 
   423   000FE0                     BSR             equ	4064	;# 
   424   000FE1                     FSR1            equ	4065	;# 
   425   000FE1                     FSR1L           equ	4065	;# 
   426   000FE2                     FSR1H           equ	4066	;# 
   427   000FE3                     PLUSW1          equ	4067	;# 
   428   000FE4                     PREINC1         equ	4068	;# 
   429   000FE5                     POSTDEC1        equ	4069	;# 
   430   000FE6                     POSTINC1        equ	4070	;# 
   431   000FE7                     INDF1           equ	4071	;# 
   432   000FE8                     WREG            equ	4072	;# 
   433   000FE9                     FSR0            equ	4073	;# 
   434   000FE9                     FSR0L           equ	4073	;# 
   435   000FEA                     FSR0H           equ	4074	;# 
   436   000FEB                     PLUSW0          equ	4075	;# 
   437   000FEC                     PREINC0         equ	4076	;# 
   438   000FED                     POSTDEC0        equ	4077	;# 
   439   000FEE                     POSTINC0        equ	4078	;# 
   440   000FEF                     INDF0           equ	4079	;# 
   441   000FF0                     INTCON3         equ	4080	;# 
   442   000FF1                     INTCON2         equ	4081	;# 
   443   000FF2                     INTCON          equ	4082	;# 
   444   000FF3                     PROD            equ	4083	;# 
   445   000FF3                     PRODL           equ	4083	;# 
   446   000FF4                     PRODH           equ	4084	;# 
   447   000FF5                     TABLAT          equ	4085	;# 
   448   000FF6                     TBLPTR          equ	4086	;# 
   449   000FF6                     TBLPTRL         equ	4086	;# 
   450   000FF7                     TBLPTRH         equ	4087	;# 
   451   000FF8                     TBLPTRU         equ	4088	;# 
   452   000FF9                     PCLAT           equ	4089	;# 
   453   000FF9                     PC              equ	4089	;# 
   454   000FF9                     PCL             equ	4089	;# 
   455   000FFA                     PCLATH          equ	4090	;# 
   456   000FFB                     PCLATU          equ	4091	;# 
   457   000FFC                     STKPTR          equ	4092	;# 
   458   000FFD                     TOS             equ	4093	;# 
   459   000FFD                     TOSL            equ	4093	;# 
   460   000FFE                     TOSH            equ	4094	;# 
   461   000FFF                     TOSU            equ	4095	;# 
   462   000F62                     SPPDATA         equ	3938	;# 
   463   000F63                     SPPCFG          equ	3939	;# 
   464   000F64                     SPPEPS          equ	3940	;# 
   465   000F65                     SPPCON          equ	3941	;# 
   466   000F66                     UFRM            equ	3942	;# 
   467   000F66                     UFRML           equ	3942	;# 
   468   000F67                     UFRMH           equ	3943	;# 
   469   000F68                     UIR             equ	3944	;# 
   470   000F69                     UIE             equ	3945	;# 
   471   000F6A                     UEIR            equ	3946	;# 
   472   000F6B                     UEIE            equ	3947	;# 
   473   000F6C                     USTAT           equ	3948	;# 
   474   000F6D                     UCON            equ	3949	;# 
   475   000F6E                     UADDR           equ	3950	;# 
   476   000F6F                     UCFG            equ	3951	;# 
   477   000F70                     UEP0            equ	3952	;# 
   478   000F71                     UEP1            equ	3953	;# 
   479   000F72                     UEP2            equ	3954	;# 
   480   000F73                     UEP3            equ	3955	;# 
   481   000F74                     UEP4            equ	3956	;# 
   482   000F75                     UEP5            equ	3957	;# 
   483   000F76                     UEP6            equ	3958	;# 
   484   000F77                     UEP7            equ	3959	;# 
   485   000F78                     UEP8            equ	3960	;# 
   486   000F79                     UEP9            equ	3961	;# 
   487   000F7A                     UEP10           equ	3962	;# 
   488   000F7B                     UEP11           equ	3963	;# 
   489   000F7C                     UEP12           equ	3964	;# 
   490   000F7D                     UEP13           equ	3965	;# 
   491   000F7E                     UEP14           equ	3966	;# 
   492   000F7F                     UEP15           equ	3967	;# 
   493   000F80                     PORTA           equ	3968	;# 
   494   000F81                     PORTB           equ	3969	;# 
   495   000F82                     PORTC           equ	3970	;# 
   496   000F83                     PORTD           equ	3971	;# 
   497   000F84                     PORTE           equ	3972	;# 
   498   000F89                     LATA            equ	3977	;# 
   499   000F8A                     LATB            equ	3978	;# 
   500   000F8B                     LATC            equ	3979	;# 
   501   000F8C                     LATD            equ	3980	;# 
   502   000F8D                     LATE            equ	3981	;# 
   503   000F92                     TRISA           equ	3986	;# 
   504   000F92                     DDRA            equ	3986	;# 
   505   000F93                     TRISB           equ	3987	;# 
   506   000F93                     DDRB            equ	3987	;# 
   507   000F94                     TRISC           equ	3988	;# 
   508   000F94                     DDRC            equ	3988	;# 
   509   000F95                     TRISD           equ	3989	;# 
   510   000F95                     DDRD            equ	3989	;# 
   511   000F96                     TRISE           equ	3990	;# 
   512   000F96                     DDRE            equ	3990	;# 
   513   000F9B                     OSCTUNE         equ	3995	;# 
   514   000F9D                     PIE1            equ	3997	;# 
   515   000F9E                     PIR1            equ	3998	;# 
   516   000F9F                     IPR1            equ	3999	;# 
   517   000FA0                     PIE2            equ	4000	;# 
   518   000FA1                     PIR2            equ	4001	;# 
   519   000FA2                     IPR2            equ	4002	;# 
   520   000FA6                     EECON1          equ	4006	;# 
   521   000FA7                     EECON2          equ	4007	;# 
   522   000FA8                     EEDATA          equ	4008	;# 
   523   000FA9                     EEADR           equ	4009	;# 
   524   000FAB                     RCSTA           equ	4011	;# 
   525   000FAB                     RCSTA1          equ	4011	;# 
   526   000FAC                     TXSTA           equ	4012	;# 
   527   000FAC                     TXSTA1          equ	4012	;# 
   528   000FAD                     TXREG           equ	4013	;# 
   529   000FAD                     TXREG1          equ	4013	;# 
   530   000FAE                     RCREG           equ	4014	;# 
   531   000FAE                     RCREG1          equ	4014	;# 
   532   000FAF                     SPBRG           equ	4015	;# 
   533   000FAF                     SPBRG1          equ	4015	;# 
   534   000FB0                     SPBRGH          equ	4016	;# 
   535   000FB1                     T3CON           equ	4017	;# 
   536   000FB2                     TMR3            equ	4018	;# 
   537   000FB2                     TMR3L           equ	4018	;# 
   538   000FB3                     TMR3H           equ	4019	;# 
   539   000FB4                     CMCON           equ	4020	;# 
   540   000FB5                     CVRCON          equ	4021	;# 
   541   000FB6                     ECCP1AS         equ	4022	;# 
   542   000FB6                     CCP1AS          equ	4022	;# 
   543   000FB7                     ECCP1DEL        equ	4023	;# 
   544   000FB7                     CCP1DEL         equ	4023	;# 
   545   000FB8                     BAUDCON         equ	4024	;# 
   546   000FB8                     BAUDCTL         equ	4024	;# 
   547   000FBA                     CCP2CON         equ	4026	;# 
   548   000FBB                     CCPR2           equ	4027	;# 
   549   000FBB                     CCPR2L          equ	4027	;# 
   550   000FBC                     CCPR2H          equ	4028	;# 
   551   000FBD                     CCP1CON         equ	4029	;# 
   552   000FBD                     ECCP1CON        equ	4029	;# 
   553   000FBE                     CCPR1           equ	4030	;# 
   554   000FBE                     CCPR1L          equ	4030	;# 
   555   000FBF                     CCPR1H          equ	4031	;# 
   556   000FC0                     ADCON2          equ	4032	;# 
   557   000FC1                     ADCON1          equ	4033	;# 
   558   000FC2                     ADCON0          equ	4034	;# 
   559   000FC3                     ADRES           equ	4035	;# 
   560   000FC3                     ADRESL          equ	4035	;# 
   561   000FC4                     ADRESH          equ	4036	;# 
   562   000FC5                     SSPCON2         equ	4037	;# 
   563   000FC6                     SSPCON1         equ	4038	;# 
   564   000FC7                     SSPSTAT         equ	4039	;# 
   565   000FC8                     SSPADD          equ	4040	;# 
   566   000FC9                     SSPBUF          equ	4041	;# 
   567   000FCA                     T2CON           equ	4042	;# 
   568   000FCB                     PR2             equ	4043	;# 
   569   000FCB                     MEMCON          equ	4043	;# 
   570   000FCC                     TMR2            equ	4044	;# 
   571   000FCD                     T1CON           equ	4045	;# 
   572   000FCE                     TMR1            equ	4046	;# 
   573   000FCE                     TMR1L           equ	4046	;# 
   574   000FCF                     TMR1H           equ	4047	;# 
   575   000FD0                     RCON            equ	4048	;# 
   576   000FD1                     WDTCON          equ	4049	;# 
   577   000FD2                     HLVDCON         equ	4050	;# 
   578   000FD2                     LVDCON          equ	4050	;# 
   579   000FD3                     OSCCON          equ	4051	;# 
   580   000FD5                     T0CON           equ	4053	;# 
   581   000FD6                     TMR0            equ	4054	;# 
   582   000FD6                     TMR0L           equ	4054	;# 
   583   000FD7                     TMR0H           equ	4055	;# 
   584   000FD8                     STATUS          equ	4056	;# 
   585   000FD9                     FSR2            equ	4057	;# 
   586   000FD9                     FSR2L           equ	4057	;# 
   587   000FDA                     FSR2H           equ	4058	;# 
   588   000FDB                     PLUSW2          equ	4059	;# 
   589   000FDC                     PREINC2         equ	4060	;# 
   590   000FDD                     POSTDEC2        equ	4061	;# 
   591   000FDE                     POSTINC2        equ	4062	;# 
   592   000FDF                     INDF2           equ	4063	;# 
   593   000FE0                     BSR             equ	4064	;# 
   594   000FE1                     FSR1            equ	4065	;# 
   595   000FE1                     FSR1L           equ	4065	;# 
   596   000FE2                     FSR1H           equ	4066	;# 
   597   000FE3                     PLUSW1          equ	4067	;# 
   598   000FE4                     PREINC1         equ	4068	;# 
   599   000FE5                     POSTDEC1        equ	4069	;# 
   600   000FE6                     POSTINC1        equ	4070	;# 
   601   000FE7                     INDF1           equ	4071	;# 
   602   000FE8                     WREG            equ	4072	;# 
   603   000FE9                     FSR0            equ	4073	;# 
   604   000FE9                     FSR0L           equ	4073	;# 
   605   000FEA                     FSR0H           equ	4074	;# 
   606   000FEB                     PLUSW0          equ	4075	;# 
   607   000FEC                     PREINC0         equ	4076	;# 
   608   000FED                     POSTDEC0        equ	4077	;# 
   609   000FEE                     POSTINC0        equ	4078	;# 
   610   000FEF                     INDF0           equ	4079	;# 
   611   000FF0                     INTCON3         equ	4080	;# 
   612   000FF1                     INTCON2         equ	4081	;# 
   613   000FF2                     INTCON          equ	4082	;# 
   614   000FF3                     PROD            equ	4083	;# 
   615   000FF3                     PRODL           equ	4083	;# 
   616   000FF4                     PRODH           equ	4084	;# 
   617   000FF5                     TABLAT          equ	4085	;# 
   618   000FF6                     TBLPTR          equ	4086	;# 
   619   000FF6                     TBLPTRL         equ	4086	;# 
   620   000FF7                     TBLPTRH         equ	4087	;# 
   621   000FF8                     TBLPTRU         equ	4088	;# 
   622   000FF9                     PCLAT           equ	4089	;# 
   623   000FF9                     PC              equ	4089	;# 
   624   000FF9                     PCL             equ	4089	;# 
   625   000FFA                     PCLATH          equ	4090	;# 
   626   000FFB                     PCLATU          equ	4091	;# 
   627   000FFC                     STKPTR          equ	4092	;# 
   628   000FFD                     TOS             equ	4093	;# 
   629   000FFD                     TOSL            equ	4093	;# 
   630   000FFE                     TOSH            equ	4094	;# 
   631   000FFF                     TOSU            equ	4095	;# 
   632                           
   633                           	psect	idataCOMRAM
   634   00188E                     __pidataCOMRAM:
   635                           	callstack 0
   636                           
   637                           ;initializer for lcd_setCursor@row_offsets
   638   00188E  00                 	db	0
   639   00188F  40                 	db	64
   640   001890  14                 	db	20
   641   001891  54                 	db	84
   642                           
   643                           ;initializer for _holdTime
   644   001892  03E8               	dw	1000
   645                           
   646                           	psect	idataBANK0
   647   001872                     __pidataBANK0:
   648                           	callstack 0
   649                           
   650                           ;initializer for _teclas
   651   001872  31                 	db	49
   652   001873  32                 	db	50
   653   001874  33                 	db	51
   654   001875  41                 	db	65
   655   001876  34                 	db	52
   656   001877  35                 	db	53
   657   001878  36                 	db	54
   658   001879  42                 	db	66
   659   00187A  37                 	db	55
   660   00187B  38                 	db	56
   661   00187C  39                 	db	57
   662   00187D  43                 	db	67
   663   00187E  2A                 	db	42
   664   00187F  30                 	db	48
   665   001880  23                 	db	35
   666   001881  44                 	db	68
   667   000FC1                     _ADCON1         set	4033
   668   000FB4                     _CMCON          set	4020
   669   000FD3                     _OSCCON         set	4051
   670   000F95                     _TRISDbits      set	3989
   671   000F83                     _PORTDbits      set	3971
   672   000FF1                     _INTCON2bits    set	4081
   673   000F81                     _PORTB          set	3969
   674   000F93                     _TRISB          set	3987
   675                           
   676                           	psect	smallconst
   677   000800                     __psmallconst:
   678                           	callstack 0
   679   000800  00                 	db	0
   680   000801                     STR_13:
   681   000801  54                 	db	84	;'T'
   682   000802  65                 	db	101	;'e'
   683   000803  63                 	db	99	;'c'
   684   000804  6C                 	db	108	;'l'
   685   000805  61                 	db	97	;'a'
   686   000806  20                 	db	32
   687   000807  6E                 	db	110	;'n'
   688   000808  6F                 	db	111	;'o'
   689   000809  20                 	db	32
   690   00080A  76                 	db	118	;'v'
   691   00080B  61                 	db	97	;'a'
   692   00080C  6C                 	db	108	;'l'
   693   00080D  69                 	db	105	;'i'
   694   00080E  64                 	db	100	;'d'
   695   00080F  61                 	db	97	;'a'
   696   000810  00                 	db	0
   697   000811                     STR_11:
   698   000811  50                 	db	80	;'P'
   699   000812  69                 	db	105	;'i'
   700   000813  73                 	db	115	;'s'
   701   000814  6F                 	db	111	;'o'
   702   000815  20                 	db	32
   703   000816  6D                 	db	109	;'m'
   704   000817  61                 	db	97	;'a'
   705   000818  73                 	db	115	;'s'
   706   000819  20                 	db	32
   707   00081A  62                 	db	98	;'b'
   708   00081B  61                 	db	97	;'a'
   709   00081C  6A                 	db	106	;'j'
   710   00081D  6F                 	db	111	;'o'
   711   00081E  00                 	db	0
   712   00081F                     STR_9:
   713   00081F  50                 	db	80	;'P'
   714   000820  69                 	db	105	;'i'
   715   000821  73                 	db	115	;'s'
   716   000822  6F                 	db	111	;'o'
   717   000823  20                 	db	32
   718   000824  6D                 	db	109	;'m'
   719   000825  61                 	db	97	;'a'
   720   000826  73                 	db	115	;'s'
   721   000827  20                 	db	32
   722   000828  61                 	db	97	;'a'
   723   000829  6C                 	db	108	;'l'
   724   00082A  74                 	db	116	;'t'
   725   00082B  6F                 	db	111	;'o'
   726   00082C  00                 	db	0
   727   00082D                     STR_5:
   728   00082D  53                 	db	83	;'S'
   729   00082E  75                 	db	117	;'u'
   730   00082F  62                 	db	98	;'b'
   731   000830  69                 	db	105	;'i'
   732   000831  65                 	db	101	;'e'
   733   000832  6E                 	db	110	;'n'
   734   000833  64                 	db	100	;'d'
   735   000834  6F                 	db	111	;'o'
   736   000835  2E                 	db	46
   737   000836  2E                 	db	46
   738   000837  2E                 	db	46
   739   000838  00                 	db	0
   740   000839                     STR_7:
   741   000839  42                 	db	66	;'B'
   742   00083A  61                 	db	97	;'a'
   743   00083B  6A                 	db	106	;'j'
   744   00083C  61                 	db	97	;'a'
   745   00083D  6E                 	db	110	;'n'
   746   00083E  64                 	db	100	;'d'
   747   00083F  6F                 	db	111	;'o'
   748   000840  2E                 	db	46
   749   000841  2E                 	db	46
   750   000842  2E                 	db	46
   751   000843  00                 	db	0
   752   000844                     STR_4:
   753   000844  45                 	db	69	;'E'
   754   000845  4D                 	db	77	;'M'
   755   000846  45                 	db	69	;'E'
   756   000847  52                 	db	82	;'R'
   757   000848  47                 	db	71	;'G'
   758   000849  45                 	db	69	;'E'
   759   00084A  4E                 	db	78	;'N'
   760   00084B  43                 	db	67	;'C'
   761   00084C  49                 	db	73	;'I'
   762   00084D  41                 	db	65	;'A'
   763   00084E  00                 	db	0
   764   00084F                     STR_1:
   765   00084F  42                 	db	66	;'B'
   766   000850  69                 	db	105	;'i'
   767   000851  65                 	db	101	;'e'
   768   000852  6E                 	db	110	;'n'
   769   000853  76                 	db	118	;'v'
   770   000854  65                 	db	101	;'e'
   771   000855  6E                 	db	110	;'n'
   772   000856  69                 	db	105	;'i'
   773   000857  64                 	db	100	;'d'
   774   000858  6F                 	db	111	;'o'
   775   000859  00                 	db	0
   776   00085A                     STR_10:
   777   00085A  61                 	db	97	;'a'
   778   00085B  6C                 	db	108	;'l'
   779   00085C  63                 	db	99	;'c'
   780   00085D  61                 	db	97	;'a'
   781   00085E  6E                 	db	110	;'n'
   782   00085F  7A                 	db	122	;'z'
   783   000860  61                 	db	97	;'a'
   784   000861  64                 	db	100	;'d'
   785   000862  6F                 	db	111	;'o'
   786   000863  00                 	db	0
   787   000864                     STR_2:
   788   000864  50                 	db	80	;'P'
   789   000865  69                 	db	105	;'i'
   790   000866  73                 	db	115	;'s'
   791   000867  6F                 	db	111	;'o'
   792   000868  3A                 	db	58	;':'
   793   000869  20                 	db	32
   794   00086A  00                 	db	0
   795   00086B                     STR_3:
   796   00086B  50                 	db	80	;'P'
   797   00086C  41                 	db	65	;'A'
   798   00086D  52                 	db	82	;'R'
   799   00086E  41                 	db	65	;'A'
   800   00086F  44                 	db	68	;'D'
   801   000870  41                 	db	65	;'A'
   802   000871  00                 	db	0
   803   00085A                     STR_12          equ	STR_10
   804   000864                     STR_6           equ	STR_2
   805   000864                     STR_8           equ	STR_2
   806   000872  00                 	db	0	; dummy byte at the end
   807   000800                     __smallconst    set	__psmallconst
   808   000800                     __mediumconst   set	__psmallconst
   809   000002                     __activetblptr  equ	2
   810                           
   811                           ; #config settings
   812                           
   813                           	psect	cinit
   814   0015C2                     __pcinit:
   815                           	callstack 0
   816   0015C2                     start_initialization:
   817                           	callstack 0
   818   0015C2                     __initialization:
   819                           	callstack 0
   820                           
   821                           ; Initialize objects allocated to BANK0 (16 bytes)
   822                           ; load TBLPTR registers with __pidataBANK0
   823   0015C2  0E72               	movlw	low __pidataBANK0
   824   0015C4  6EF6               	movwf	tblptrl,c
   825   0015C6  0E18               	movlw	high __pidataBANK0
   826   0015C8  6EF7               	movwf	tblptrh,c
   827   0015CA  0E00               	movlw	low (__pidataBANK0 shr (0+16))
   828   0015CC  6EF8               	movwf	tblptru,c
   829   0015CE  EE00  F060         	lfsr	0,__pdataBANK0
   830   0015D2  EE10 F010          	lfsr	1,16
   831   0015D6                     copy_data0:
   832   0015D6  0009               	tblrd		*+
   833   0015D8  CFF5 FFEE          	movff	tablat,postinc0
   834   0015DC  50E5               	movf	postdec1,w,c
   835   0015DE  50E1               	movf	fsr1l,w,c
   836   0015E0  E1FA               	bnz	copy_data0
   837                           
   838                           ; Initialize objects allocated to COMRAM (6 bytes)
   839                           ; load TBLPTR registers with __pidataCOMRAM
   840   0015E2  0E8E               	movlw	low __pidataCOMRAM
   841   0015E4  6EF6               	movwf	tblptrl,c
   842   0015E6  0E18               	movlw	high __pidataCOMRAM
   843   0015E8  6EF7               	movwf	tblptrh,c
   844   0015EA  0E00               	movlw	low (__pidataCOMRAM shr (0+16))
   845   0015EC  6EF8               	movwf	tblptru,c
   846   0015EE  EE00  F05A         	lfsr	0,__pdataCOMRAM
   847   0015F2  EE10 F006          	lfsr	1,6
   848   0015F6                     copy_data1:
   849   0015F6  0009               	tblrd		*+
   850   0015F8  CFF5 FFEE          	movff	tablat,postinc0
   851   0015FC  50E5               	movf	postdec1,w,c
   852   0015FE  50E1               	movf	fsr1l,w,c
   853   001600  E1FA               	bnz	copy_data1
   854                           
   855                           ; Clear objects allocated to COMRAM (49 bytes)
   856   001602  EE00  F001         	lfsr	0,__pbssCOMRAM
   857   001606  0E31               	movlw	49
   858   001608                     clear_0:
   859   001608  6AEE               	clrf	postinc0,c
   860   00160A  06E8               	decf	wreg,f,c
   861   00160C  E1FD               	bnz	clear_0
   862   00160E                     end_of_initialization:
   863                           	callstack 0
   864   00160E                     __end_of__initialization:
   865                           	callstack 0
   866   00160E  0E00               	movlw	low (__Lmediumconst shr (0+16))
   867   001610  6EF8               	movwf	tblptru,c
   868   001612  0100               	movlb	0
   869   001614  EF34  F005         	goto	_main	;jump to C main() function
   870                           
   871                           	psect	bssCOMRAM
   872   000001                     __pbssCOMRAM:
   873                           	callstack 0
   874   000001                     _lcd_config:
   875                           	callstack 0
   876   000001                     	ds	7
   877   000008                     _simple_millis:
   878                           	callstack 0
   879   000008                     	ds	4
   880   00000C                     _piso:
   881                           	callstack 0
   882   00000C                     	ds	2
   883   00000E                     _emergency_stop:
   884                           	callstack 0
   885   00000E                     	ds	1
   886   00000F                     _miTeclado:
   887                           	callstack 0
   888   00000F                     	ds	35
   889                           
   890                           	psect	dataCOMRAM
   891   00005A                     __pdataCOMRAM:
   892                           	callstack 0
   893   00005A                     lcd_setCursor@row_offsets:
   894                           	callstack 0
   895   00005A                     	ds	4
   896   00005E                     _holdTime:
   897                           	callstack 0
   898   00005E                     	ds	2
   899                           
   900                           	psect	dataBANK0
   901   000060                     __pdataBANK0:
   902                           	callstack 0
   903   000060                     _teclas:
   904                           	callstack 0
   905   000060                     	ds	16
   906                           
   907                           	psect	cstackCOMRAM
   908   000032                     __pcstackCOMRAM:
   909                           	callstack 0
   910   000032                     ?_strlen:
   911                           	callstack 0
   912   000032                     ?___awdiv:
   913                           	callstack 0
   914   000032                     ?___lwdiv:
   915                           	callstack 0
   916   000032                     ?_getMillis:
   917                           	callstack 0
   918   000032                     ?___aldiv:
   919                           	callstack 0
   920   000032                     ?___almod:
   921                           	callstack 0
   922   000032                     Keypad_Init@keypad:
   923                           	callstack 0
   924   000032                     scanKeys@keypad:
   925                           	callstack 0
   926   000032                     Keypad_IsPressed@keypad:
   927                           	callstack 0
   928   000032                     strlen@s:
   929                           	callstack 0
   930   000032                     lcd_delay_us@us:
   931                           	callstack 0
   932   000032                     lcd_delay_ms@ms:
   933                           	callstack 0
   934   000032                     ___awdiv@dividend:
   935                           	callstack 0
   936   000032                     ___lwdiv@dividend:
   937                           	callstack 0
   938   000032                     ___aldiv@dividend:
   939                           	callstack 0
   940   000032                     ___almod@dividend:
   941                           	callstack 0
   942                           
   943                           ; 4 bytes @ 0x0
   944   000032                     	ds	1
   945   000033                     Keypad_Init@keymap:
   946                           	callstack 0
   947   000033                     Keypad_IsPressed@key:
   948                           	callstack 0
   949   000033                     ??_scanKeys:
   950                           
   951                           ; 1 bytes @ 0x1
   952   000033                     	ds	1
   953   000034                     Keypad_Init@i:
   954                           	callstack 0
   955   000034                     strlen@a:
   956                           	callstack 0
   957   000034                     ___awdiv@divisor:
   958                           	callstack 0
   959   000034                     ___lwdiv@divisor:
   960                           	callstack 0
   961   000034                     ??_lcd_delay_ms:
   962   000034                     ??_lcd_write4bits:
   963                           
   964                           ; 1 bytes @ 0x2
   965   000034                     	ds	1
   966   000035                     Keypad_Init@j:
   967                           	callstack 0
   968   000035                     scanKeys@row:
   969                           	callstack 0
   970   000035                     _Keypad_IsPressed$156:
   971                           	callstack 0
   972   000035                     lcd_write4bits@value:
   973                           	callstack 0
   974                           
   975                           ; 1 bytes @ 0x3
   976   000035                     	ds	1
   977   000036                     scanKeys@col:
   978                           	callstack 0
   979   000036                     lcd_command@cmd:
   980                           	callstack 0
   981   000036                     lcd_write@value:
   982                           	callstack 0
   983   000036                     ___awdiv@counter:
   984                           	callstack 0
   985   000036                     ___lwdiv@quotient:
   986                           	callstack 0
   987   000036                     ___aldiv@divisor:
   988                           	callstack 0
   989   000036                     ___almod@divisor:
   990                           	callstack 0
   991   000036                     
   992                           ; 1 bytes @ 0x4
   993   000036                     	ds	1
   994   000037                     lcd_begin@rows:
   995                           	callstack 0
   996   000037                     lcd_setCursor@row:
   997                           	callstack 0
   998   000037                     lcd_print@str:
   999                           	callstack 0
  1000   000037                     ___awdiv@sign:
  1001                           	callstack 0
  1002   000037                     
  1003                           ; 1 bytes @ 0x5
  1004   000037                     	ds	1
  1005   000038                     lcd_begin@cols:
  1006                           	callstack 0
  1007   000038                     lcd_setCursor@col:
  1008                           	callstack 0
  1009   000038                     ___lwdiv@counter:
  1010                           	callstack 0
  1011   000038                     ___awdiv@quotient:
  1012                           	callstack 0
  1013   000038                     
  1014                           ; 1 bytes @ 0x6
  1015   000038                     	ds	1
  1016   000039                     Keypad_GetKey@keypad:
  1017                           	callstack 0
  1018                           
  1019                           ; 1 bytes @ 0x7
  1020   000039                     	ds	1
  1021   00003A                     lcd_printCenter@str:
  1022                           	callstack 0
  1023   00003A                     ___aldiv@counter:
  1024                           	callstack 0
  1025   00003A                     ___almod@counter:
  1026                           	callstack 0
  1027   00003A                     ??_Keypad_GetKey:
  1028   00003A                     
  1029                           ; 1 bytes @ 0x8
  1030   00003A                     	ds	1
  1031   00003B                     lcd_printCenter@row:
  1032                           	callstack 0
  1033   00003B                     ___aldiv@sign:
  1034                           	callstack 0
  1035   00003B                     ___almod@sign:
  1036                           	callstack 0
  1037                           
  1038                           ; 1 bytes @ 0x9
  1039   00003B                     	ds	1
  1040   00003C                     lcd_printCenter@pos:
  1041                           	callstack 0
  1042   00003C                     ___aldiv@quotient:
  1043                           	callstack 0
  1044   00003C                     
  1045                           ; 1 bytes @ 0xA
  1046   00003C                     	ds	1
  1047   00003D                     lcd_printCenter@len:
  1048                           	callstack 0
  1049                           
  1050                           ; 1 bytes @ 0xB
  1051   00003D                     	ds	3
  1052   000040                     lcd_printNum@num:
  1053                           	callstack 0
  1054                           
  1055                           ; 4 bytes @ 0xE
  1056   000040                     	ds	4
  1057   000044                     lcd_printNum@buffer:
  1058                           	callstack 0
  1059   000044                     
  1060                           ; 1 bytes @ 0x12
  1061   000044                     	ds	2
  1062   000046                     Keypad_GetKey@currentTime:
  1063                           	callstack 0
  1064                           
  1065                           ; 4 bytes @ 0x14
  1066   000046                     	ds	4
  1067   00004A                     Keypad_GetKey@key:
  1068                           	callstack 0
  1069                           
  1070                           ; 1 bytes @ 0x18
  1071   00004A                     	ds	1
  1072   00004B                     Keypad_WaitForKey@keypad:
  1073                           	callstack 0
  1074                           
  1075                           ; 1 bytes @ 0x19
  1076   00004B                     	ds	1
  1077   00004C                     ??_Keypad_WaitForKey:
  1078                           
  1079                           ; 1 bytes @ 0x1A
  1080   00004C                     	ds	1
  1081   00004D                     Keypad_WaitForKey@key:
  1082                           	callstack 0
  1083                           
  1084                           ; 1 bytes @ 0x1B
  1085   00004D                     	ds	3
  1086   000050                     lcd_printNum@isNegative:
  1087                           	callstack 0
  1088                           
  1089                           ; 1 bytes @ 0x1E
  1090   000050                     	ds	1
  1091   000051                     lcd_printNum@i:
  1092                           	callstack 0
  1093                           
  1094                           ; 1 bytes @ 0x1F
  1095   000051                     	ds	1
  1096   000052                     ??_emergency_stop_sequence:
  1097                           
  1098                           ; 1 bytes @ 0x20
  1099   000052                     	ds	2
  1100   000054                     check_emergency_during_delay@delay_ms:
  1101                           	callstack 0
  1102   000054                     ??_subir:
  1103   000054                     ??_bajar:
  1104                           
  1105                           ; 1 bytes @ 0x22
  1106   000054                     	ds	2
  1107   000056                     subir@steps:
  1108                           	callstack 0
  1109   000056                     bajar@steps:
  1110                           	callstack 0
  1111   000056                     ??_check_emergency_during_delay:
  1112                           
  1113                           ; 1 bytes @ 0x24
  1114   000056                     	ds	1
  1115   000057                     check_emergency_during_delay@i:
  1116                           	callstack 0
  1117                           
  1118                           ; 2 bytes @ 0x25
  1119   000057                     	ds	2
  1120   000059                     main@tecla:
  1121                           	callstack 0
  1122   000059                     
  1123                           ; 1 bytes @ 0x27
  1124   000059                     	ds	1
  1125                           
  1126 ;;
  1127 ;;Main: autosize = 0, tempsize = 0, incstack = 0, save=0
  1128 ;;
  1129 ;; *************** function _main *****************
  1130 ;; Defined at:
  1131 ;;		line 122 in file "main.c"
  1132 ;; Parameters:    Size  Location     Type
  1133 ;;		None
  1134 ;; Auto vars:     Size  Location     Type
  1135 ;;  tecla           1   39[COMRAM] unsigned char 
  1136 ;; Return value:  Size  Location     Type
  1137 ;;                  1    wreg      void 
  1138 ;; Registers used:
  1139 ;;		wreg, fsr1l, fsr1h, fsr2l, fsr2h, status,2, status,0, tblptrl, tblptrh, tblptru, prodl, prodh, cstack
  1140 ;; Tracked objects:
  1141 ;;		On entry : 0/0
  1142 ;;		On exit  : 0/0
  1143 ;;		Unchanged: 0/0
  1144 ;; Data sizes:     COMRAM   BANK0   BANK1   BANK2   BANK3   BANK4   BANK5   BANK6   BANK7
  1145 ;;      Params:         0       0       0       0       0       0       0       0       0
  1146 ;;      Locals:         1       0       0       0       0       0       0       0       0
  1147 ;;      Temps:          0       0       0       0       0       0       0       0       0
  1148 ;;      Totals:         1       0       0       0       0       0       0       0       0
  1149 ;;Total ram usage:        1 bytes
  1150 ;; Hardware stack levels required when called: 8
  1151 ;; This function calls:
  1152 ;;		_Keypad_Init
  1153 ;;		_Keypad_IsPressed
  1154 ;;		_Keypad_WaitForKey
  1155 ;;		_bajar
  1156 ;;		_check_emergency_during_delay
  1157 ;;		_emergency_stop_sequence
  1158 ;;		_idle
  1159 ;;		_lcd_begin
  1160 ;;		_lcd_clear
  1161 ;;		_lcd_printCenter
  1162 ;;		_subir
  1163 ;; This function is called by:
  1164 ;;		Startup code after reset
  1165 ;; This function uses a non-reentrant model
  1166 ;;
  1167                           
  1168                           	psect	text0
  1169   000A68                     __ptext0:
  1170                           	callstack 0
  1171   000A68                     _main:
  1172                           	callstack 23
  1173   000A68                     
  1174                           ;main.c: 124:     OSCCON = 0x72;
  1175   000A68  0E72               	movlw	114
  1176   000A6A  6ED3               	movwf	211,c	;volatile
  1177                           
  1178                           ;main.c: 125:     CMCON = 0x07;
  1179   000A6C  0E07               	movlw	7
  1180   000A6E  6EB4               	movwf	180,c	;volatile
  1181                           
  1182                           ;main.c: 126:     TRISB = 0xF0;
  1183   000A70  0EF0               	movlw	240
  1184   000A72  6E93               	movwf	147,c	;volatile
  1185                           
  1186                           ;main.c: 127:     ADCON1 = 0x0F;
  1187   000A74  0E0F               	movlw	15
  1188   000A76  6EC1               	movwf	193,c	;volatile
  1189   000A78                     
  1190                           ;main.c: 130:     lcd_begin(16, 2);
  1191   000A78  0E02               	movlw	2
  1192   000A7A  6E37               	movwf	lcd_begin@rows^0,c
  1193   000A7C  0E10               	movlw	16
  1194   000A7E  EC84  F009         	call	_lcd_begin
  1195   000A82                     
  1196                           ;main.c: 133:     Keypad_Init(&miTeclado, teclas);
  1197   000A82  0E0F               	movlw	low _miTeclado
  1198   000A84  6E32               	movwf	Keypad_Init@keypad^0,c
  1199   000A86  0E60               	movlw	low _teclas
  1200   000A88  6E33               	movwf	Keypad_Init@keymap^0,c
  1201   000A8A  EC99  F006         	call	_Keypad_Init	;wreg free
  1202   000A8E                     
  1203                           ;main.c: 135:     emergency_stop = 0;
  1204   000A8E  6A0E               	clrf	_emergency_stop^0,c	;volatile
  1205   000A90                     l2800:
  1206                           
  1207                           ;main.c: 136:     idle();
  1208   000A90  EC55  F00B         	call	_idle	;wreg free
  1209   000A94                     l2802:
  1210                           
  1211                           ;main.c: 140:         if (Keypad_IsPressed(&miTeclado, 'D')) {
  1212   000A94  0E0F               	movlw	low _miTeclado
  1213   000A96  6E32               	movwf	Keypad_IsPressed@keypad^0,c
  1214   000A98  0E44               	movlw	68
  1215   000A9A  6E33               	movwf	Keypad_IsPressed@key^0,c
  1216   000A9C  ECB3  F00A         	call	_Keypad_IsPressed	;wreg free
  1217   000AA0  0900               	iorlw	0
  1218   000AA2  B4D8               	btfsc	status,2,c
  1219   000AA4  EF56  F005         	goto	u1771
  1220   000AA8  EF58  F005         	goto	u1770
  1221   000AAC                     u1771:
  1222   000AAC  EF5C  F005         	goto	l2806
  1223   000AB0                     u1770:
  1224   000AB0                     l2804:
  1225                           
  1226                           ;main.c: 141:             emergency_stop_sequence();
  1227   000AB0  EC0B  F00A         	call	_emergency_stop_sequence	;wreg free
  1228                           
  1229                           ;main.c: 142:             continue;
  1230   000AB4  EF4A  F005         	goto	l2802
  1231   000AB8                     l2806:
  1232                           
  1233                           ;main.c: 146:         char tecla = Keypad_WaitForKey(&miTeclado);
  1234   000AB8  0E0F               	movlw	low _miTeclado
  1235   000ABA  6E4B               	movwf	Keypad_WaitForKey@keypad^0,c
  1236   000ABC  ECBD  F00B         	call	_Keypad_WaitForKey	;wreg free
  1237   000AC0  6E59               	movwf	main@tecla^0,c
  1238   000AC2                     
  1239                           ;main.c: 149:         if (emergency_stop) {
  1240   000AC2  500E               	movf	_emergency_stop^0,w,c	;volatile
  1241   000AC4  B4D8               	btfsc	status,2,c
  1242   000AC6  EF67  F005         	goto	u1781
  1243   000ACA  EF69  F005         	goto	u1780
  1244   000ACE                     u1781:
  1245   000ACE  EF03  F006         	goto	l2868
  1246   000AD2                     u1780:
  1247   000AD2  EF4A  F005         	goto	l2802
  1248   000AD6                     l2812:
  1249                           
  1250                           ;main.c: 155:                 if (piso < 2 && !emergency_stop) {
  1251   000AD6  500D               	movf	(_piso+1)^0,w,c	;volatile
  1252   000AD8  E107               	bnz	u1791
  1253   000ADA  0E02               	movlw	2
  1254   000ADC  5C0C               	subwf	_piso^0,w,c	;volatile
  1255   000ADE  B0D8               	btfsc	status,0,c
  1256   000AE0  EF74  F005         	goto	u1791
  1257   000AE4  EF76  F005         	goto	u1790
  1258   000AE8                     u1791:
  1259   000AE8  EF82  F005         	goto	l2818
  1260   000AEC                     u1790:
  1261   000AEC  500E               	movf	_emergency_stop^0,w,c	;volatile
  1262   000AEE  A4D8               	btfss	status,2,c
  1263   000AF0  EF7C  F005         	goto	u1801
  1264   000AF4  EF7E  F005         	goto	u1800
  1265   000AF8                     u1801:
  1266   000AF8  EF82  F005         	goto	l2818
  1267   000AFC                     u1800:
  1268   000AFC                     
  1269                           ;main.c: 156:                     subir();
  1270   000AFC  ECCA  F008         	call	_subir	;wreg free
  1271                           
  1272                           ;main.c: 157:                 } else if (!emergency_stop) {
  1273   000B00  EF4A  F005         	goto	l2802
  1274   000B04                     l2818:
  1275   000B04  500E               	movf	_emergency_stop^0,w,c	;volatile
  1276   000B06  A4D8               	btfss	status,2,c
  1277   000B08  EF88  F005         	goto	u1811
  1278   000B0C  EF8A  F005         	goto	u1810
  1279   000B10                     u1811:
  1280   000B10  EF4A  F005         	goto	l2802
  1281   000B14                     u1810:
  1282   000B14                     
  1283                           ;main.c: 158:                     lcd_clear();
  1284   000B14  EC2E  F00C         	call	_lcd_clear	;wreg free
  1285   000B18                     
  1286                           ;main.c: 159:                     lcd_printCenter("Piso mas alto", 0);
  1287   000B18  0E1F               	movlw	low STR_9
  1288   000B1A  6E3A               	movwf	lcd_printCenter@str^0,c
  1289   000B1C  0E00               	movlw	0
  1290   000B1E  6E3B               	movwf	lcd_printCenter@row^0,c
  1291   000B20  EC0C  F00B         	call	_lcd_printCenter	;wreg free
  1292   000B24                     
  1293                           ;main.c: 160:                     lcd_printCenter("alcanzado", 1);
  1294   000B24  0E5A               	movlw	low STR_10
  1295   000B26  6E3A               	movwf	lcd_printCenter@str^0,c
  1296   000B28  0E01               	movlw	1
  1297   000B2A  6E3B               	movwf	lcd_printCenter@row^0,c
  1298   000B2C  EC0C  F00B         	call	_lcd_printCenter	;wreg free
  1299   000B30                     
  1300                           ;main.c: 161:                     check_emergency_during_delay(2000);
  1301   000B30  0E07               	movlw	7
  1302   000B32  6E55               	movwf	(check_emergency_during_delay@delay_ms+1)^0,c
  1303   000B34  0ED0               	movlw	208
  1304   000B36  6E54               	movwf	check_emergency_during_delay@delay_ms^0,c
  1305   000B38  EC7D  F00A         	call	_check_emergency_during_delay	;wreg free
  1306   000B3C                     
  1307                           ;main.c: 162:                     if (!emergency_stop) idle();
  1308   000B3C  500E               	movf	_emergency_stop^0,w,c	;volatile
  1309   000B3E  A4D8               	btfss	status,2,c
  1310   000B40  EFA4  F005         	goto	u1821
  1311   000B44  EFA6  F005         	goto	u1820
  1312   000B48                     u1821:
  1313   000B48  EF4A  F005         	goto	l2802
  1314   000B4C                     u1820:
  1315   000B4C  EF48  F005         	goto	l2800
  1316   000B50                     l2832:
  1317                           
  1318                           ;main.c: 166:                 if (piso > 0 && !emergency_stop) {
  1319   000B50  500C               	movf	_piso^0,w,c	;volatile
  1320   000B52  100D               	iorwf	(_piso+1)^0,w,c	;volatile
  1321   000B54  B4D8               	btfsc	status,2,c
  1322   000B56  EFAF  F005         	goto	u1831
  1323   000B5A  EFB1  F005         	goto	u1830
  1324   000B5E                     u1831:
  1325   000B5E  EFBD  F005         	goto	l2838
  1326   000B62                     u1830:
  1327   000B62  500E               	movf	_emergency_stop^0,w,c	;volatile
  1328   000B64  A4D8               	btfss	status,2,c
  1329   000B66  EFB7  F005         	goto	u1841
  1330   000B6A  EFB9  F005         	goto	u1840
  1331   000B6E                     u1841:
  1332   000B6E  EFBD  F005         	goto	l2838
  1333   000B72                     u1840:
  1334   000B72                     
  1335                           ;main.c: 167:                     bajar();
  1336   000B72  EC0A  F008         	call	_bajar	;wreg free
  1337                           
  1338                           ;main.c: 168:                 } else if (!emergency_stop) {
  1339   000B76  EF4A  F005         	goto	l2802
  1340   000B7A                     l2838:
  1341   000B7A  500E               	movf	_emergency_stop^0,w,c	;volatile
  1342   000B7C  A4D8               	btfss	status,2,c
  1343   000B7E  EFC3  F005         	goto	u1851
  1344   000B82  EFC5  F005         	goto	u1850
  1345   000B86                     u1851:
  1346   000B86  EF4A  F005         	goto	l2802
  1347   000B8A                     u1850:
  1348   000B8A                     
  1349                           ;main.c: 169:                     lcd_clear();
  1350   000B8A  EC2E  F00C         	call	_lcd_clear	;wreg free
  1351   000B8E                     
  1352                           ;main.c: 170:                     lcd_printCenter("Piso mas bajo", 0);
  1353   000B8E  0E11               	movlw	low STR_11
  1354   000B90  6E3A               	movwf	lcd_printCenter@str^0,c
  1355   000B92  0E00               	movlw	0
  1356   000B94  6E3B               	movwf	lcd_printCenter@row^0,c
  1357   000B96  EC0C  F00B         	call	_lcd_printCenter	;wreg free
  1358   000B9A                     
  1359                           ;main.c: 171:                     lcd_printCenter("alcanzado", 1);
  1360   000B9A  0E5A               	movlw	low STR_10
  1361   000B9C  6E3A               	movwf	lcd_printCenter@str^0,c
  1362   000B9E  0E01               	movlw	1
  1363   000BA0  6E3B               	movwf	lcd_printCenter@row^0,c
  1364   000BA2  EC0C  F00B         	call	_lcd_printCenter	;wreg free
  1365   000BA6                     
  1366                           ;main.c: 172:                     check_emergency_during_delay(2000);
  1367   000BA6  0E07               	movlw	7
  1368   000BA8  6E55               	movwf	(check_emergency_during_delay@delay_ms+1)^0,c
  1369   000BAA  0ED0               	movlw	208
  1370   000BAC  6E54               	movwf	check_emergency_during_delay@delay_ms^0,c
  1371   000BAE  EC7D  F00A         	call	_check_emergency_during_delay	;wreg free
  1372   000BB2                     
  1373                           ;main.c: 173:                     if (!emergency_stop) idle();
  1374   000BB2  500E               	movf	_emergency_stop^0,w,c	;volatile
  1375   000BB4  A4D8               	btfss	status,2,c
  1376   000BB6  EFDF  F005         	goto	u1861
  1377   000BBA  EFE1  F005         	goto	u1860
  1378   000BBE                     u1861:
  1379   000BBE  EF4A  F005         	goto	l2802
  1380   000BC2                     u1860:
  1381   000BC2  EF48  F005         	goto	l2800
  1382   000BC6                     l2854:
  1383                           
  1384                           ;main.c: 181:                 if (!emergency_stop) {
  1385   000BC6  500E               	movf	_emergency_stop^0,w,c	;volatile
  1386   000BC8  A4D8               	btfss	status,2,c
  1387   000BCA  EFE9  F005         	goto	u1871
  1388   000BCE  EFEB  F005         	goto	u1870
  1389   000BD2                     u1871:
  1390   000BD2  EF4A  F005         	goto	l2802
  1391   000BD6                     u1870:
  1392   000BD6                     
  1393                           ;main.c: 182:                     lcd_clear();
  1394   000BD6  EC2E  F00C         	call	_lcd_clear	;wreg free
  1395   000BDA                     
  1396                           ;main.c: 183:                     lcd_printCenter("Tecla no valida", 0);
  1397   000BDA  0E01               	movlw	low STR_13
  1398   000BDC  6E3A               	movwf	lcd_printCenter@str^0,c
  1399   000BDE  0E00               	movlw	0
  1400   000BE0  6E3B               	movwf	lcd_printCenter@row^0,c
  1401   000BE2  EC0C  F00B         	call	_lcd_printCenter	;wreg free
  1402   000BE6                     
  1403                           ;main.c: 184:                     check_emergency_during_delay(1000);
  1404   000BE6  0E03               	movlw	3
  1405   000BE8  6E55               	movwf	(check_emergency_during_delay@delay_ms+1)^0,c
  1406   000BEA  0EE8               	movlw	232
  1407   000BEC  6E54               	movwf	check_emergency_during_delay@delay_ms^0,c
  1408   000BEE  EC7D  F00A         	call	_check_emergency_during_delay	;wreg free
  1409   000BF2                     
  1410                           ;main.c: 185:                     if (!emergency_stop) idle();
  1411   000BF2  500E               	movf	_emergency_stop^0,w,c	;volatile
  1412   000BF4  A4D8               	btfss	status,2,c
  1413   000BF6  EFFF  F005         	goto	u1881
  1414   000BFA  EF01  F006         	goto	u1880
  1415   000BFE                     u1881:
  1416   000BFE  EF4A  F005         	goto	l2802
  1417   000C02                     u1880:
  1418   000C02  EF48  F005         	goto	l2800
  1419   000C06                     l2868:
  1420   000C06  5059               	movf	main@tecla^0,w,c
  1421                           
  1422                           ; Switch size 1, requested type "simple"
  1423                           ; Number of cases is 3, Range of values is 65 to 68
  1424                           ; switch strategies available:
  1425                           ; Name         Instructions Cycles
  1426                           ; simple_byte           10     6 (average)
  1427                           ;	Chosen strategy is simple_byte
  1428   000C08  0A41               	xorlw	65	; case 65
  1429   000C0A  B4D8               	btfsc	status,2,c
  1430   000C0C  EF6B  F005         	goto	l2812
  1431   000C10  0A03               	xorlw	3	; case 66
  1432   000C12  B4D8               	btfsc	status,2,c
  1433   000C14  EFA8  F005         	goto	l2832
  1434   000C18  0A06               	xorlw	6	; case 68
  1435   000C1A  B4D8               	btfsc	status,2,c
  1436   000C1C  EF58  F005         	goto	l2804
  1437   000C20  EFE3  F005         	goto	l2854
  1438   000C24  EFFE  F03F         	goto	start
  1439   000C28                     __end_of_main:
  1440                           	callstack 0
  1441                           
  1442 ;; *************** function _subir *****************
  1443 ;; Defined at:
  1444 ;;		line 50 in file "main.c"
  1445 ;; Parameters:    Size  Location     Type
  1446 ;;		None
  1447 ;; Auto vars:     Size  Location     Type
  1448 ;;  steps           2   36[COMRAM] unsigned int 
  1449 ;; Return value:  Size  Location     Type
  1450 ;;                  1    wreg      void 
  1451 ;; Registers used:
  1452 ;;		wreg, fsr2l, fsr2h, status,2, status,0, tblptrl, tblptrh, tblptru, cstack
  1453 ;; Tracked objects:
  1454 ;;		On entry : 0/0
  1455 ;;		On exit  : 0/0
  1456 ;;		Unchanged: 0/0
  1457 ;; Data sizes:     COMRAM   BANK0   BANK1   BANK2   BANK3   BANK4   BANK5   BANK6   BANK7
  1458 ;;      Params:         0       0       0       0       0       0       0       0       0
  1459 ;;      Locals:         2       0       0       0       0       0       0       0       0
  1460 ;;      Temps:          2       0       0       0       0       0       0       0       0
  1461 ;;      Totals:         4       0       0       0       0       0       0       0       0
  1462 ;;Total ram usage:        4 bytes
  1463 ;; Hardware stack levels used: 1
  1464 ;; Hardware stack levels required when called: 1
  1465 ;; This function calls:
  1466 ;;		_Keypad_IsPressed
  1467 ;;		_emergency_stop_sequence
  1468 ;;		_idle
  1469 ;;		_lcd_clear
  1470 ;;		_lcd_print
  1471 ;;		_lcd_printCenter
  1472 ;;		_lcd_printNum
  1473 ;;		_lcd_setCursor
  1474 ;; This function is called by:
  1475 ;;		_main
  1476 ;; This function uses a non-reentrant model
  1477 ;;
  1478                           
  1479                           	psect	text1
  1480   001194                     __ptext1:
  1481                           	callstack 0
  1482   001194                     _subir:
  1483                           	callstack 29
  1484   001194                     
  1485                           ;main.c: 51:     unsigned int steps = 0;
  1486   001194  6A57               	clrf	(subir@steps+1)^0,c
  1487   001196  0E00               	movlw	0
  1488   001198  6E56               	movwf	subir@steps^0,c
  1489   00119A                     
  1490                           ;main.c: 52:     emergency_stop = 0;
  1491   00119A  6A0E               	clrf	_emergency_stop^0,c	;volatile
  1492   00119C                     
  1493                           ;main.c: 54:     lcd_clear();
  1494   00119C  EC2E  F00C         	call	_lcd_clear	;wreg free
  1495   0011A0                     
  1496                           ;main.c: 55:     lcd_printCenter("Subiendo...", 0);
  1497   0011A0  0E2D               	movlw	low STR_5
  1498   0011A2  6E3A               	movwf	lcd_printCenter@str^0,c
  1499   0011A4  0E00               	movlw	0
  1500   0011A6  6E3B               	movwf	lcd_printCenter@row^0,c
  1501   0011A8  EC0C  F00B         	call	_lcd_printCenter	;wreg free
  1502   0011AC                     
  1503                           ;main.c: 56:     lcd_setCursor(0, 1);
  1504   0011AC  0E01               	movlw	1
  1505   0011AE  6E37               	movwf	lcd_setCursor@row^0,c
  1506   0011B0  0E00               	movlw	0
  1507   0011B2  EC89  F00B         	call	_lcd_setCursor
  1508   0011B6                     
  1509                           ;main.c: 57:     lcd_print("Piso: ");
  1510   0011B6  0E64               	movlw	low STR_2
  1511   0011B8  6E37               	movwf	lcd_print@str^0,c
  1512   0011BA  ECA3  F00B         	call	_lcd_print	;wreg free
  1513   0011BE                     
  1514                           ;main.c: 58:     lcd_printNum(piso);
  1515   0011BE  C00C  F040         	movff	_piso,lcd_printNum@num	;volatile
  1516   0011C2  C00D  F041         	movff	_piso+1,lcd_printNum@num+1	;volatile
  1517   0011C6  6A42               	clrf	(lcd_printNum@num+2)^0,c
  1518   0011C8  6A43               	clrf	(lcd_printNum@num+3)^0,c
  1519   0011CA  EC1D  F007         	call	_lcd_printNum	;wreg free
  1520                           
  1521                           ;main.c: 61:     while (steps < 10 && !emergency_stop) {
  1522   0011CE  EF09  F009         	goto	l2526
  1523   0011D2                     l2516:
  1524                           
  1525                           ;main.c: 62:         _delay((unsigned long)((100)*(8000000/4000.0)));
  1526   0011D2  0E02               	movlw	2
  1527   0011D4  6E55               	movwf	(??_subir+1)^0,c
  1528   0011D6  0E04               	movlw	4
  1529   0011D8  6E54               	movwf	??_subir^0,c
  1530   0011DA  0EBA               	movlw	186
  1531   0011DC                     u1897:
  1532   0011DC  2EE8               	decfsz	wreg,f,c
  1533   0011DE  D7FE               	bra	u1897
  1534   0011E0  2E54               	decfsz	??_subir^0,f,c
  1535   0011E2  D7FC               	bra	u1897
  1536   0011E4  2E55               	decfsz	(??_subir+1)^0,f,c
  1537   0011E6  D7FA               	bra	u1897
  1538   0011E8  D000               	nop2	
  1539   0011EA                     
  1540                           ;main.c: 65:         if (Keypad_IsPressed(&miTeclado, 'D')) {
  1541   0011EA  0E0F               	movlw	low _miTeclado
  1542   0011EC  6E32               	movwf	Keypad_IsPressed@keypad^0,c
  1543   0011EE  0E44               	movlw	68
  1544   0011F0  6E33               	movwf	Keypad_IsPressed@key^0,c
  1545   0011F2  ECB3  F00A         	call	_Keypad_IsPressed	;wreg free
  1546   0011F6  0900               	iorlw	0
  1547   0011F8  B4D8               	btfsc	status,2,c
  1548   0011FA  EF01  F009         	goto	u1461
  1549   0011FE  EF03  F009         	goto	u1460
  1550   001202                     u1461:
  1551   001202  EF07  F009         	goto	l2524
  1552   001206                     u1460:
  1553   001206                     
  1554                           ;main.c: 66:             emergency_stop_sequence();
  1555   001206  EC0B  F00A         	call	_emergency_stop_sequence	;wreg free
  1556   00120A  EF28  F009         	goto	l303
  1557   00120E                     l2524:
  1558                           
  1559                           ;main.c: 70:         steps++;
  1560   00120E  4A56               	infsnz	subir@steps^0,f,c
  1561   001210  2A57               	incf	(subir@steps+1)^0,f,c
  1562   001212                     l2526:
  1563                           
  1564                           ;main.c: 61:     while (steps < 10 && !emergency_stop) {
  1565   001212  5057               	movf	(subir@steps+1)^0,w,c
  1566   001214  E107               	bnz	u1471
  1567   001216  0E0A               	movlw	10
  1568   001218  5C56               	subwf	subir@steps^0,w,c
  1569   00121A  B0D8               	btfsc	status,0,c
  1570   00121C  EF12  F009         	goto	u1471
  1571   001220  EF14  F009         	goto	u1470
  1572   001224                     u1471:
  1573   001224  EF1C  F009         	goto	l2530
  1574   001228                     u1470:
  1575   001228  500E               	movf	_emergency_stop^0,w,c	;volatile
  1576   00122A  B4D8               	btfsc	status,2,c
  1577   00122C  EF1A  F009         	goto	u1481
  1578   001230  EF1C  F009         	goto	u1480
  1579   001234                     u1481:
  1580   001234  EFE9  F008         	goto	l2516
  1581   001238                     u1480:
  1582   001238                     l2530:
  1583                           
  1584                           ;main.c: 74:     if (!emergency_stop) {
  1585   001238  500E               	movf	_emergency_stop^0,w,c	;volatile
  1586   00123A  A4D8               	btfss	status,2,c
  1587   00123C  EF22  F009         	goto	u1491
  1588   001240  EF24  F009         	goto	u1490
  1589   001244                     u1491:
  1590   001244  EF28  F009         	goto	l303
  1591   001248                     u1490:
  1592   001248                     
  1593                           ;main.c: 75:         piso++;
  1594   001248  4A0C               	infsnz	_piso^0,f,c	;volatile
  1595   00124A  2A0D               	incf	(_piso+1)^0,f,c	;volatile
  1596   00124C                     
  1597                           ;main.c: 76:         idle();
  1598   00124C  EC55  F00B         	call	_idle	;wreg free
  1599   001250                     l303:
  1600   001250  0012               	return		;funcret
  1601   001252                     __end_of_subir:
  1602                           	callstack 0
  1603                           
  1604 ;; *************** function _lcd_begin *****************
  1605 ;; Defined at:
  1606 ;;		line 75 in file "lcd.c"
  1607 ;; Parameters:    Size  Location     Type
  1608 ;;  cols            1    wreg     unsigned char 
  1609 ;;  rows            1    5[COMRAM] unsigned char 
  1610 ;; Auto vars:     Size  Location     Type
  1611 ;;  cols            1    6[COMRAM] unsigned char 
  1612 ;; Return value:  Size  Location     Type
  1613 ;;                  1    wreg      void 
  1614 ;; Registers used:
  1615 ;;		wreg, status,2, status,0, cstack
  1616 ;; Tracked objects:
  1617 ;;		On entry : 0/0
  1618 ;;		On exit  : 0/0
  1619 ;;		Unchanged: 0/0
  1620 ;; Data sizes:     COMRAM   BANK0   BANK1   BANK2   BANK3   BANK4   BANK5   BANK6   BANK7
  1621 ;;      Params:         1       0       0       0       0       0       0       0       0
  1622 ;;      Locals:         1       0       0       0       0       0       0       0       0
  1623 ;;      Temps:          0       0       0       0       0       0       0       0       0
  1624 ;;      Totals:         2       0       0       0       0       0       0       0       0
  1625 ;;Total ram usage:        2 bytes
  1626 ;; Hardware stack levels used: 1
  1627 ;; Hardware stack levels required when called: 2
  1628 ;; This function calls:
  1629 ;;		_lcd_clear
  1630 ;;		_lcd_command
  1631 ;;		_lcd_delay_ms
  1632 ;;		_lcd_delay_us
  1633 ;;		_lcd_display
  1634 ;;		_lcd_write4bits
  1635 ;; This function is called by:
  1636 ;;		_main
  1637 ;; This function uses a non-reentrant model
  1638 ;;
  1639                           
  1640                           	psect	text2
  1641   001308                     __ptext2:
  1642                           	callstack 0
  1643   001308                     _lcd_begin:
  1644                           	callstack 28
  1645                           
  1646                           ;incstack = 0
  1647                           ;lcd_begin@cols stored from wreg
  1648   001308  6E38               	movwf	lcd_begin@cols^0,c
  1649   00130A                     
  1650                           ;lcd.c: 77:     TRISDbits.TRISD0 = 0;
  1651   00130A  9095               	bcf	149,0,c	;volatile
  1652                           
  1653                           ;lcd.c: 78:     TRISDbits.TRISD1 = 0;
  1654   00130C  9295               	bcf	149,1,c	;volatile
  1655                           
  1656                           ;lcd.c: 79:     TRISDbits.TRISD2 = 0;
  1657   00130E  9495               	bcf	149,2,c	;volatile
  1658                           
  1659                           ;lcd.c: 80:     TRISDbits.TRISD4 = 0;
  1660   001310  9895               	bcf	149,4,c	;volatile
  1661                           
  1662                           ;lcd.c: 81:     TRISDbits.TRISD5 = 0;
  1663   001312  9A95               	bcf	149,5,c	;volatile
  1664                           
  1665                           ;lcd.c: 82:     TRISDbits.TRISD6 = 0;
  1666   001314  9C95               	bcf	149,6,c	;volatile
  1667                           
  1668                           ;lcd.c: 83:     TRISDbits.TRISD7 = 0;
  1669   001316  9E95               	bcf	149,7,c	;volatile
  1670                           
  1671                           ;lcd.c: 86:     PORTDbits.RD0 = 0;
  1672   001318  9083               	bcf	131,0,c	;volatile
  1673                           
  1674                           ;lcd.c: 87:     PORTDbits.RD1 = 0;
  1675   00131A  9283               	bcf	131,1,c	;volatile
  1676                           
  1677                           ;lcd.c: 88:     PORTDbits.RD2 = 0;
  1678   00131C  9483               	bcf	131,2,c	;volatile
  1679   00131E                     
  1680                           ;lcd.c: 90:     lcd_config.numCols = cols;
  1681   00131E  C038  F005         	movff	lcd_begin@cols,_lcd_config+4
  1682   001322                     
  1683                           ;lcd.c: 91:     lcd_config.numLines = rows;
  1684   001322  C037  F004         	movff	lcd_begin@rows,_lcd_config+3
  1685   001326                     
  1686                           ;lcd.c: 92:     lcd_config.currLine = 0;
  1687   001326  6A06               	clrf	(_lcd_config+5)^0,c
  1688   001328                     
  1689                           ;lcd.c: 93:     lcd_config.currCol = 0;
  1690   001328  6A07               	clrf	(_lcd_config+6)^0,c
  1691   00132A                     
  1692                           ;lcd.c: 95:     lcd_config.displayFunction = 0x00 | 0x08 | 0x00;
  1693   00132A  0E08               	movlw	8
  1694   00132C  6E01               	movwf	_lcd_config^0,c
  1695   00132E                     
  1696                           ;lcd.c: 98:     lcd_delay_ms(50);
  1697   00132E  6A33               	clrf	(lcd_delay_ms@ms+1)^0,c
  1698   001330  0E32               	movlw	50
  1699   001332  6E32               	movwf	lcd_delay_ms@ms^0,c
  1700   001334  ECD7  F00B         	call	_lcd_delay_ms	;wreg free
  1701   001338                     
  1702                           ;lcd.c: 101:     PORTDbits.RD0 = 0;
  1703   001338  9083               	bcf	131,0,c	;volatile
  1704   00133A                     
  1705                           ;lcd.c: 102:     PORTDbits.RD2 = 0;
  1706   00133A  9483               	bcf	131,2,c	;volatile
  1707   00133C                     
  1708                           ;lcd.c: 105:     lcd_write4bits(0x03);
  1709   00133C  0E03               	movlw	3
  1710   00133E  ECCF  F009         	call	_lcd_write4bits
  1711   001342                     
  1712                           ;lcd.c: 106:     lcd_delay_ms(5);
  1713   001342  6A33               	clrf	(lcd_delay_ms@ms+1)^0,c
  1714   001344  0E05               	movlw	5
  1715   001346  6E32               	movwf	lcd_delay_ms@ms^0,c
  1716   001348  ECD7  F00B         	call	_lcd_delay_ms	;wreg free
  1717   00134C                     
  1718                           ;lcd.c: 109:     lcd_write4bits(0x03);
  1719   00134C  0E03               	movlw	3
  1720   00134E  ECCF  F009         	call	_lcd_write4bits
  1721   001352                     
  1722                           ;lcd.c: 110:     lcd_delay_us(150);
  1723   001352  6A33               	clrf	(lcd_delay_us@us+1)^0,c
  1724   001354  0E96               	movlw	150
  1725   001356  6E32               	movwf	lcd_delay_us@us^0,c
  1726   001358  EC01  F00C         	call	_lcd_delay_us	;wreg free
  1727   00135C                     
  1728                           ;lcd.c: 113:     lcd_write4bits(0x03);
  1729   00135C  0E03               	movlw	3
  1730   00135E  ECCF  F009         	call	_lcd_write4bits
  1731   001362                     
  1732                           ;lcd.c: 114:     lcd_delay_us(150);
  1733   001362  6A33               	clrf	(lcd_delay_us@us+1)^0,c
  1734   001364  0E96               	movlw	150
  1735   001366  6E32               	movwf	lcd_delay_us@us^0,c
  1736   001368  EC01  F00C         	call	_lcd_delay_us	;wreg free
  1737   00136C                     
  1738                           ;lcd.c: 117:     lcd_write4bits(0x02);
  1739   00136C  0E02               	movlw	2
  1740   00136E  ECCF  F009         	call	_lcd_write4bits
  1741   001372                     
  1742                           ;lcd.c: 118:     lcd_delay_us(150);
  1743   001372  6A33               	clrf	(lcd_delay_us@us+1)^0,c
  1744   001374  0E96               	movlw	150
  1745   001376  6E32               	movwf	lcd_delay_us@us^0,c
  1746   001378  EC01  F00C         	call	_lcd_delay_us	;wreg free
  1747   00137C                     
  1748                           ;lcd.c: 121:     lcd_command(0x20 | lcd_config.displayFunction);
  1749   00137C  5001               	movf	_lcd_config^0,w,c
  1750   00137E  0920               	iorlw	32
  1751   001380  EC33  F00B         	call	_lcd_command
  1752                           
  1753                           ;lcd.c: 124:     lcd_config.displayControl = 0x04 | 0x00 | 0x00;
  1754   001384  0E04               	movlw	4
  1755   001386  6E02               	movwf	(_lcd_config+1)^0,c
  1756   001388                     
  1757                           ;lcd.c: 125:     lcd_display();
  1758   001388  EC41  F00C         	call	_lcd_display	;wreg free
  1759   00138C                     
  1760                           ;lcd.c: 128:     lcd_clear();
  1761   00138C  EC2E  F00C         	call	_lcd_clear	;wreg free
  1762                           
  1763                           ;lcd.c: 131:     lcd_config.displayMode = 0x02 | 0x00;
  1764   001390  0E02               	movlw	2
  1765   001392  6E03               	movwf	(_lcd_config+2)^0,c
  1766   001394                     
  1767                           ;lcd.c: 132:     lcd_command(0x04 | lcd_config.displayMode);
  1768   001394  5003               	movf	(_lcd_config+2)^0,w,c
  1769   001396  0904               	iorlw	4
  1770   001398  EC33  F00B         	call	_lcd_command
  1771   00139C  0012               	return		;funcret
  1772   00139E                     __end_of_lcd_begin:
  1773                           	callstack 0
  1774                           
  1775 ;; *************** function _lcd_display *****************
  1776 ;; Defined at:
  1777 ;;		line 172 in file "lcd.c"
  1778 ;; Parameters:    Size  Location     Type
  1779 ;;		None
  1780 ;; Auto vars:     Size  Location     Type
  1781 ;;		None
  1782 ;; Return value:  Size  Location     Type
  1783 ;;                  1    wreg      void 
  1784 ;; Registers used:
  1785 ;;		wreg, status,2, status,0, cstack
  1786 ;; Tracked objects:
  1787 ;;		On entry : 0/0
  1788 ;;		On exit  : 0/0
  1789 ;;		Unchanged: 0/0
  1790 ;; Data sizes:     COMRAM   BANK0   BANK1   BANK2   BANK3   BANK4   BANK5   BANK6   BANK7
  1791 ;;      Params:         0       0       0       0       0       0       0       0       0
  1792 ;;      Locals:         0       0       0       0       0       0       0       0       0
  1793 ;;      Temps:          0       0       0       0       0       0       0       0       0
  1794 ;;      Totals:         0       0       0       0       0       0       0       0       0
  1795 ;;Total ram usage:        0 bytes
  1796 ;; Hardware stack levels used: 1
  1797 ;; Hardware stack levels required when called: 1
  1798 ;; This function calls:
  1799 ;;		_lcd_command
  1800 ;; This function is called by:
  1801 ;;		_lcd_begin
  1802 ;; This function uses a non-reentrant model
  1803 ;;
  1804                           
  1805                           	psect	text3
  1806   001882                     __ptext3:
  1807                           	callstack 0
  1808   001882                     _lcd_display:
  1809                           	callstack 28
  1810   001882                     
  1811                           ;lcd.c: 173:     lcd_config.displayControl |= 0x04;
  1812   001882  8402               	bsf	(_lcd_config+1)^0,2,c
  1813   001884                     
  1814                           ;lcd.c: 174:     lcd_command(0x08 | lcd_config.displayControl);
  1815   001884  5002               	movf	(_lcd_config+1)^0,w,c
  1816   001886  0908               	iorlw	8
  1817   001888  EC33  F00B         	call	_lcd_command
  1818   00188C  0012               	return		;funcret
  1819   00188E                     __end_of_lcd_display:
  1820                           	callstack 0
  1821                           
  1822 ;; *************** function _check_emergency_during_delay *****************
  1823 ;; Defined at:
  1824 ;;		line 111 in file "main.c"
  1825 ;; Parameters:    Size  Location     Type
  1826 ;;  delay_ms        2   34[COMRAM] unsigned int 
  1827 ;; Auto vars:     Size  Location     Type
  1828 ;;  i               2   37[COMRAM] unsigned int 
  1829 ;; Return value:  Size  Location     Type
  1830 ;;                  1    wreg      void 
  1831 ;; Registers used:
  1832 ;;		wreg, fsr2l, fsr2h, status,2, status,0, tblptrl, tblptrh, tblptru, cstack
  1833 ;; Tracked objects:
  1834 ;;		On entry : 0/0
  1835 ;;		On exit  : 0/0
  1836 ;;		Unchanged: 0/0
  1837 ;; Data sizes:     COMRAM   BANK0   BANK1   BANK2   BANK3   BANK4   BANK5   BANK6   BANK7
  1838 ;;      Params:         2       0       0       0       0       0       0       0       0
  1839 ;;      Locals:         2       0       0       0       0       0       0       0       0
  1840 ;;      Temps:          1       0       0       0       0       0       0       0       0
  1841 ;;      Totals:         5       0       0       0       0       0       0       0       0
  1842 ;;Total ram usage:        5 bytes
  1843 ;; Hardware stack levels used: 1
  1844 ;; Hardware stack levels required when called: 1
  1845 ;; This function calls:
  1846 ;;		_Keypad_IsPressed
  1847 ;;		___lwdiv
  1848 ;;		_emergency_stop_sequence
  1849 ;; This function is called by:
  1850 ;;		_main
  1851 ;; This function uses a non-reentrant model
  1852 ;;
  1853                           
  1854                           	psect	text4
  1855   0014FA                     __ptext4:
  1856                           	callstack 0
  1857   0014FA                     _check_emergency_during_delay:
  1858                           	callstack 29
  1859   0014FA                     
  1860                           ;main.c: 112:     unsigned int i;;main.c: 113:     for (i = 0; i < delay_ms / 10; i++) {
  1861   0014FA  6A58               	clrf	(check_emergency_during_delay@i+1)^0,c
  1862   0014FC  0E00               	movlw	0
  1863   0014FE  6E57               	movwf	check_emergency_during_delay@i^0,c
  1864   001500  EF9E  F00A         	goto	l2580
  1865   001504                     l2572:
  1866                           
  1867                           ;main.c: 114:         if (Keypad_IsPressed(&miTeclado, 'D')) {
  1868   001504  0E0F               	movlw	low _miTeclado
  1869   001506  6E32               	movwf	Keypad_IsPressed@keypad^0,c
  1870   001508  0E44               	movlw	68
  1871   00150A  6E33               	movwf	Keypad_IsPressed@key^0,c
  1872   00150C  ECB3  F00A         	call	_Keypad_IsPressed	;wreg free
  1873   001510  0900               	iorlw	0
  1874   001512  B4D8               	btfsc	status,2,c
  1875   001514  EF8E  F00A         	goto	u1541
  1876   001518  EF90  F00A         	goto	u1540
  1877   00151C                     u1541:
  1878   00151C  EF94  F00A         	goto	l2576
  1879   001520                     u1540:
  1880   001520                     
  1881                           ;main.c: 115:             emergency_stop_sequence();
  1882   001520  EC0B  F00A         	call	_emergency_stop_sequence	;wreg free
  1883                           
  1884                           ;main.c: 116:             break;
  1885   001524  EFB2  F00A         	goto	l324
  1886   001528                     l2576:
  1887                           
  1888                           ;main.c: 118:         _delay((unsigned long)((10)*(8000000/4000.0)));
  1889   001528  0E1A               	movlw	26
  1890   00152A  6E56               	movwf	??_check_emergency_during_delay^0,c
  1891   00152C  0EF8               	movlw	248
  1892   00152E                     u1907:
  1893   00152E  2EE8               	decfsz	wreg,f,c
  1894   001530  D7FE               	bra	u1907
  1895   001532  2E56               	decfsz	??_check_emergency_during_delay^0,f,c
  1896   001534  D7FC               	bra	u1907
  1897   001536  D000               	nop2	
  1898   001538                     
  1899                           ;main.c: 119:     }
  1900   001538  4A57               	infsnz	check_emergency_during_delay@i^0,f,c
  1901   00153A  2A58               	incf	(check_emergency_during_delay@i+1)^0,f,c
  1902   00153C                     l2580:
  1903   00153C  C054  F032         	movff	check_emergency_during_delay@delay_ms,___lwdiv@dividend
  1904   001540  C055  F033         	movff	check_emergency_during_delay@delay_ms+1,___lwdiv@dividend+1
  1905   001544  6A35               	clrf	(___lwdiv@divisor+1)^0,c
  1906   001546  0E0A               	movlw	10
  1907   001548  6E34               	movwf	___lwdiv@divisor^0,c
  1908   00154A  EC44  F00A         	call	___lwdiv	;wreg free
  1909   00154E  5032               	movf	?___lwdiv^0,w,c
  1910   001550  5C57               	subwf	check_emergency_during_delay@i^0,w,c
  1911   001552  5033               	movf	(?___lwdiv+1)^0,w,c
  1912   001554  5858               	subwfb	(check_emergency_during_delay@i+1)^0,w,c
  1913   001556  A0D8               	btfss	status,0,c
  1914   001558  EFB0  F00A         	goto	u1551
  1915   00155C  EFB2  F00A         	goto	u1550
  1916   001560                     u1551:
  1917   001560  EF82  F00A         	goto	l2572
  1918   001564                     u1550:
  1919   001564                     l324:
  1920   001564  0012               	return		;funcret
  1921   001566                     __end_of_check_emergency_during_delay:
  1922                           	callstack 0
  1923                           
  1924 ;; *************** function _bajar *****************
  1925 ;; Defined at:
  1926 ;;		line 80 in file "main.c"
  1927 ;; Parameters:    Size  Location     Type
  1928 ;;		None
  1929 ;; Auto vars:     Size  Location     Type
  1930 ;;  steps           2   36[COMRAM] unsigned int 
  1931 ;; Return value:  Size  Location     Type
  1932 ;;                  1    wreg      void 
  1933 ;; Registers used:
  1934 ;;		wreg, fsr2l, fsr2h, status,2, status,0, tblptrl, tblptrh, tblptru, cstack
  1935 ;; Tracked objects:
  1936 ;;		On entry : 0/0
  1937 ;;		On exit  : 0/0
  1938 ;;		Unchanged: 0/0
  1939 ;; Data sizes:     COMRAM   BANK0   BANK1   BANK2   BANK3   BANK4   BANK5   BANK6   BANK7
  1940 ;;      Params:         0       0       0       0       0       0       0       0       0
  1941 ;;      Locals:         2       0       0       0       0       0       0       0       0
  1942 ;;      Temps:          2       0       0       0       0       0       0       0       0
  1943 ;;      Totals:         4       0       0       0       0       0       0       0       0
  1944 ;;Total ram usage:        4 bytes
  1945 ;; Hardware stack levels used: 1
  1946 ;; Hardware stack levels required when called: 7
  1947 ;; This function calls:
  1948 ;;		_Keypad_IsPressed
  1949 ;;		_emergency_stop_sequence
  1950 ;;		_idle
  1951 ;;		_lcd_clear
  1952 ;;		_lcd_print
  1953 ;;		_lcd_printCenter
  1954 ;;		_lcd_printNum
  1955 ;;		_lcd_setCursor
  1956 ;; This function is called by:
  1957 ;;		_main
  1958 ;; This function uses a non-reentrant model
  1959 ;;
  1960                           
  1961                           	psect	text5
  1962   001014                     __ptext5:
  1963                           	callstack 0
  1964   001014                     _bajar:
  1965                           	callstack 23
  1966   001014                     
  1967                           ;main.c: 81:     unsigned int steps = 0;
  1968   001014  6A57               	clrf	(bajar@steps+1)^0,c
  1969   001016  0E00               	movlw	0
  1970   001018  6E56               	movwf	bajar@steps^0,c
  1971   00101A                     
  1972                           ;main.c: 82:     emergency_stop = 0;
  1973   00101A  6A0E               	clrf	_emergency_stop^0,c	;volatile
  1974   00101C                     
  1975                           ;main.c: 84:     lcd_clear();
  1976   00101C  EC2E  F00C         	call	_lcd_clear	;wreg free
  1977   001020                     
  1978                           ;main.c: 85:     lcd_printCenter("Bajando...", 0);
  1979   001020  0E39               	movlw	low STR_7
  1980   001022  6E3A               	movwf	lcd_printCenter@str^0,c
  1981   001024  0E00               	movlw	0
  1982   001026  6E3B               	movwf	lcd_printCenter@row^0,c
  1983   001028  EC0C  F00B         	call	_lcd_printCenter	;wreg free
  1984   00102C                     
  1985                           ;main.c: 86:     lcd_setCursor(0, 1);
  1986   00102C  0E01               	movlw	1
  1987   00102E  6E37               	movwf	lcd_setCursor@row^0,c
  1988   001030  0E00               	movlw	0
  1989   001032  EC89  F00B         	call	_lcd_setCursor
  1990   001036                     
  1991                           ;main.c: 87:     lcd_print("Piso: ");
  1992   001036  0E64               	movlw	low STR_2
  1993   001038  6E37               	movwf	lcd_print@str^0,c
  1994   00103A  ECA3  F00B         	call	_lcd_print	;wreg free
  1995   00103E                     
  1996                           ;main.c: 88:     lcd_printNum(piso);
  1997   00103E  C00C  F040         	movff	_piso,lcd_printNum@num	;volatile
  1998   001042  C00D  F041         	movff	_piso+1,lcd_printNum@num+1	;volatile
  1999   001046  6A42               	clrf	(lcd_printNum@num+2)^0,c
  2000   001048  6A43               	clrf	(lcd_printNum@num+3)^0,c
  2001   00104A  EC1D  F007         	call	_lcd_printNum	;wreg free
  2002                           
  2003                           ;main.c: 91:     while (steps < 10 && !emergency_stop) {
  2004   00104E  EF49  F008         	goto	l2560
  2005   001052                     l2550:
  2006                           
  2007                           ;main.c: 92:         _delay((unsigned long)((100)*(8000000/4000.0)));
  2008   001052  0E02               	movlw	2
  2009   001054  6E55               	movwf	(??_bajar+1)^0,c
  2010   001056  0E04               	movlw	4
  2011   001058  6E54               	movwf	??_bajar^0,c
  2012   00105A  0EBA               	movlw	186
  2013   00105C                     u1917:
  2014   00105C  2EE8               	decfsz	wreg,f,c
  2015   00105E  D7FE               	bra	u1917
  2016   001060  2E54               	decfsz	??_bajar^0,f,c
  2017   001062  D7FC               	bra	u1917
  2018   001064  2E55               	decfsz	(??_bajar+1)^0,f,c
  2019   001066  D7FA               	bra	u1917
  2020   001068  D000               	nop2	
  2021   00106A                     
  2022                           ;main.c: 95:         if (Keypad_IsPressed(&miTeclado, 'D')) {
  2023   00106A  0E0F               	movlw	low _miTeclado
  2024   00106C  6E32               	movwf	Keypad_IsPressed@keypad^0,c
  2025   00106E  0E44               	movlw	68
  2026   001070  6E33               	movwf	Keypad_IsPressed@key^0,c
  2027   001072  ECB3  F00A         	call	_Keypad_IsPressed	;wreg free
  2028   001076  0900               	iorlw	0
  2029   001078  B4D8               	btfsc	status,2,c
  2030   00107A  EF41  F008         	goto	u1501
  2031   00107E  EF43  F008         	goto	u1500
  2032   001082                     u1501:
  2033   001082  EF47  F008         	goto	l2558
  2034   001086                     u1500:
  2035   001086                     
  2036                           ;main.c: 96:             emergency_stop_sequence();
  2037   001086  EC0B  F00A         	call	_emergency_stop_sequence	;wreg free
  2038   00108A  EF69  F008         	goto	l313
  2039   00108E                     l2558:
  2040                           
  2041                           ;main.c: 100:         steps++;
  2042   00108E  4A56               	infsnz	bajar@steps^0,f,c
  2043   001090  2A57               	incf	(bajar@steps+1)^0,f,c
  2044   001092                     l2560:
  2045                           
  2046                           ;main.c: 91:     while (steps < 10 && !emergency_stop) {
  2047   001092  5057               	movf	(bajar@steps+1)^0,w,c
  2048   001094  E107               	bnz	u1511
  2049   001096  0E0A               	movlw	10
  2050   001098  5C56               	subwf	bajar@steps^0,w,c
  2051   00109A  B0D8               	btfsc	status,0,c
  2052   00109C  EF52  F008         	goto	u1511
  2053   0010A0  EF54  F008         	goto	u1510
  2054   0010A4                     u1511:
  2055   0010A4  EF5C  F008         	goto	l2564
  2056   0010A8                     u1510:
  2057   0010A8  500E               	movf	_emergency_stop^0,w,c	;volatile
  2058   0010AA  B4D8               	btfsc	status,2,c
  2059   0010AC  EF5A  F008         	goto	u1521
  2060   0010B0  EF5C  F008         	goto	u1520
  2061   0010B4                     u1521:
  2062   0010B4  EF29  F008         	goto	l2550
  2063   0010B8                     u1520:
  2064   0010B8                     l2564:
  2065                           
  2066                           ;main.c: 104:     if (!emergency_stop) {
  2067   0010B8  500E               	movf	_emergency_stop^0,w,c	;volatile
  2068   0010BA  A4D8               	btfss	status,2,c
  2069   0010BC  EF62  F008         	goto	u1531
  2070   0010C0  EF64  F008         	goto	u1530
  2071   0010C4                     u1531:
  2072   0010C4  EF69  F008         	goto	l313
  2073   0010C8                     u1530:
  2074   0010C8                     
  2075                           ;main.c: 105:         piso--;
  2076   0010C8  060C               	decf	_piso^0,f,c	;volatile
  2077   0010CA  A0D8               	btfss	status,0,c
  2078   0010CC  060D               	decf	(_piso+1)^0,f,c	;volatile
  2079   0010CE                     
  2080                           ;main.c: 106:         idle();
  2081   0010CE  EC55  F00B         	call	_idle	;wreg free
  2082   0010D2                     l313:
  2083   0010D2  0012               	return		;funcret
  2084   0010D4                     __end_of_bajar:
  2085                           	callstack 0
  2086                           
  2087 ;; *************** function _emergency_stop_sequence *****************
  2088 ;; Defined at:
  2089 ;;		line 29 in file "main.c"
  2090 ;; Parameters:    Size  Location     Type
  2091 ;;		None
  2092 ;; Auto vars:     Size  Location     Type
  2093 ;;		None
  2094 ;; Return value:  Size  Location     Type
  2095 ;;                  1    wreg      void 
  2096 ;; Registers used:
  2097 ;;		wreg, fsr2l, fsr2h, status,2, status,0, tblptrl, tblptrh, tblptru, cstack
  2098 ;; Tracked objects:
  2099 ;;		On entry : 0/0
  2100 ;;		On exit  : 0/0
  2101 ;;		Unchanged: 0/0
  2102 ;; Data sizes:     COMRAM   BANK0   BANK1   BANK2   BANK3   BANK4   BANK5   BANK6   BANK7
  2103 ;;      Params:         0       0       0       0       0       0       0       0       0
  2104 ;;      Locals:         0       0       0       0       0       0       0       0       0
  2105 ;;      Temps:          2       0       0       0       0       0       0       0       0
  2106 ;;      Totals:         2       0       0       0       0       0       0       0       0
  2107 ;;Total ram usage:        2 bytes
  2108 ;; Hardware stack levels used: 1
  2109 ;; This function calls:
  2110 ;;		_Keypad_IsPressed
  2111 ;;		_idle
  2112 ;;		_lcd_clear
  2113 ;;		_lcd_printCenter
  2114 ;; This function is called by:
  2115 ;;		_subir
  2116 ;;		_bajar
  2117 ;;		_check_emergency_during_delay
  2118 ;;		_main
  2119 ;; This function uses a non-reentrant model
  2120 ;;
  2121                           
  2122                           	psect	text6
  2123   001416                     __ptext6:
  2124                           	callstack 0
  2125   001416                     _emergency_stop_sequence:
  2126                           	callstack 29
  2127   001416                     
  2128                           ;main.c: 30:     emergency_stop = 1;
  2129   001416  0E01               	movlw	1
  2130   001418  6E0E               	movwf	_emergency_stop^0,c	;volatile
  2131   00141A                     
  2132                           ;main.c: 31:     lcd_clear();
  2133   00141A  EC2E  F00C         	call	_lcd_clear	;wreg free
  2134   00141E                     
  2135                           ;main.c: 32:     lcd_printCenter("PARADA", 0);
  2136   00141E  0E6B               	movlw	low STR_3
  2137   001420  6E3A               	movwf	lcd_printCenter@str^0,c
  2138   001422  0E00               	movlw	0
  2139   001424  6E3B               	movwf	lcd_printCenter@row^0,c
  2140   001426  EC0C  F00B         	call	_lcd_printCenter	;wreg free
  2141   00142A                     
  2142                           ;main.c: 33:     lcd_printCenter("EMERGENCIA", 1);
  2143   00142A  0E44               	movlw	low STR_4
  2144   00142C  6E3A               	movwf	lcd_printCenter@str^0,c
  2145   00142E  0E01               	movlw	1
  2146   001430  6E3B               	movwf	lcd_printCenter@row^0,c
  2147   001432  EC0C  F00B         	call	_lcd_printCenter	;wreg free
  2148   001436                     l2400:
  2149                           
  2150                           ;main.c: 38:         if (Keypad_IsPressed(&miTeclado, 'C')) {
  2151   001436  0E0F               	movlw	low _miTeclado
  2152   001438  6E32               	movwf	Keypad_IsPressed@keypad^0,c
  2153   00143A  0E43               	movlw	67
  2154   00143C  6E33               	movwf	Keypad_IsPressed@key^0,c
  2155   00143E  ECB3  F00A         	call	_Keypad_IsPressed	;wreg free
  2156   001442  0900               	iorlw	0
  2157   001444  B4D8               	btfsc	status,2,c
  2158   001446  EF27  F00A         	goto	u1421
  2159   00144A  EF29  F00A         	goto	u1420
  2160   00144E                     u1421:
  2161   00144E  EF37  F00A         	goto	l2406
  2162   001452                     u1420:
  2163   001452                     
  2164                           ;main.c: 39:             emergency_stop = 0;
  2165   001452  6A0E               	clrf	_emergency_stop^0,c	;volatile
  2166   001454                     
  2167                           ;main.c: 40:             _delay((unsigned long)((500)*(8000000/4000.0)));
  2168   001454  0E06               	movlw	6
  2169   001456  6E53               	movwf	(??_emergency_stop_sequence+1)^0,c
  2170   001458  0E13               	movlw	19
  2171   00145A  6E52               	movwf	??_emergency_stop_sequence^0,c
  2172   00145C  0EAE               	movlw	174
  2173   00145E                     u1927:
  2174   00145E  2EE8               	decfsz	wreg,f,c
  2175   001460  D7FE               	bra	u1927
  2176   001462  2E52               	decfsz	??_emergency_stop_sequence^0,f,c
  2177   001464  D7FC               	bra	u1927
  2178   001466  2E53               	decfsz	(??_emergency_stop_sequence+1)^0,f,c
  2179   001468  D7FA               	bra	u1927
  2180                           
  2181                           ;main.c: 41:             break;
  2182   00146A  EF41  F00A         	goto	l2408
  2183   00146E                     l2406:
  2184                           
  2185                           ;main.c: 43:         _delay((unsigned long)((10)*(8000000/4000.0)));
  2186   00146E  0E1A               	movlw	26
  2187   001470  6E52               	movwf	??_emergency_stop_sequence^0,c
  2188   001472  0EF8               	movlw	248
  2189   001474                     u1937:
  2190   001474  2EE8               	decfsz	wreg,f,c
  2191   001476  D7FE               	bra	u1937
  2192   001478  2E52               	decfsz	??_emergency_stop_sequence^0,f,c
  2193   00147A  D7FC               	bra	u1937
  2194   00147C  D000               	nop2	
  2195   00147E  EF1B  F00A         	goto	l2400
  2196   001482                     l2408:
  2197                           
  2198                           ;main.c: 46:     idle();
  2199   001482  EC55  F00B         	call	_idle	;wreg free
  2200   001486  0012               	return		;funcret
  2201   001488                     __end_of_emergency_stop_sequence:
  2202                           	callstack 0
  2203                           
  2204 ;; *************** function _idle *****************
  2205 ;; Defined at:
  2206 ;;		line 21 in file "main.c"
  2207 ;; Parameters:    Size  Location     Type
  2208 ;;		None
  2209 ;; Auto vars:     Size  Location     Type
  2210 ;;		None
  2211 ;; Return value:  Size  Location     Type
  2212 ;;                  1    wreg      void 
  2213 ;; Registers used:
  2214 ;;		wreg, fsr2l, fsr2h, status,2, status,0, tblptrl, tblptrh, tblptru, cstack
  2215 ;; Tracked objects:
  2216 ;;		On entry : 0/0
  2217 ;;		On exit  : 0/0
  2218 ;;		Unchanged: 0/0
  2219 ;; Data sizes:     COMRAM   BANK0   BANK1   BANK2   BANK3   BANK4   BANK5   BANK6   BANK7
  2220 ;;      Params:         0       0       0       0       0       0       0       0       0
  2221 ;;      Locals:         0       0       0       0       0       0       0       0       0
  2222 ;;      Temps:          0       0       0       0       0       0       0       0       0
  2223 ;;      Totals:         0       0       0       0       0       0       0       0       0
  2224 ;;Total ram usage:        0 bytes
  2225 ;; Hardware stack levels used: 1
  2226 ;; This function calls:
  2227 ;;		_lcd_clear
  2228 ;;		_lcd_print
  2229 ;;		_lcd_printCenter
  2230 ;;		_lcd_printNum
  2231 ;;		_lcd_setCursor
  2232 ;; This function is called by:
  2233 ;;		_emergency_stop_sequence
  2234 ;;		_subir
  2235 ;;		_bajar
  2236 ;;		_main
  2237 ;; This function uses a non-reentrant model
  2238 ;;
  2239                           
  2240                           	psect	text7
  2241   0016AA                     __ptext7:
  2242                           	callstack 0
  2243   0016AA                     _idle:
  2244                           	callstack 28
  2245   0016AA                     
  2246                           ;main.c: 22:     lcd_clear();
  2247   0016AA  EC2E  F00C         	call	_lcd_clear	;wreg free
  2248   0016AE                     
  2249                           ;main.c: 23:     lcd_printCenter("Bienvenido", 0);
  2250   0016AE  0E4F               	movlw	low STR_1
  2251   0016B0  6E3A               	movwf	lcd_printCenter@str^0,c
  2252   0016B2  0E00               	movlw	0
  2253   0016B4  6E3B               	movwf	lcd_printCenter@row^0,c
  2254   0016B6  EC0C  F00B         	call	_lcd_printCenter	;wreg free
  2255   0016BA                     
  2256                           ;main.c: 24:     lcd_setCursor(0, 1);
  2257   0016BA  0E01               	movlw	1
  2258   0016BC  6E37               	movwf	lcd_setCursor@row^0,c
  2259   0016BE  0E00               	movlw	0
  2260   0016C0  EC89  F00B         	call	_lcd_setCursor
  2261                           
  2262                           ;main.c: 25:     lcd_print("Piso: ");
  2263   0016C4  0E64               	movlw	low STR_2
  2264   0016C6  6E37               	movwf	lcd_print@str^0,c
  2265   0016C8  ECA3  F00B         	call	_lcd_print	;wreg free
  2266   0016CC                     
  2267                           ;main.c: 26:     lcd_printNum(piso);
  2268   0016CC  C00C  F040         	movff	_piso,lcd_printNum@num	;volatile
  2269   0016D0  C00D  F041         	movff	_piso+1,lcd_printNum@num+1	;volatile
  2270   0016D4  6A42               	clrf	(lcd_printNum@num+2)^0,c
  2271   0016D6  6A43               	clrf	(lcd_printNum@num+3)^0,c
  2272   0016D8  EC1D  F007         	call	_lcd_printNum	;wreg free
  2273   0016DC  0012               	return		;funcret
  2274   0016DE                     __end_of_idle:
  2275                           	callstack 0
  2276                           
  2277 ;; *************** function _lcd_printNum *****************
  2278 ;; Defined at:
  2279 ;;		line 256 in file "lcd.c"
  2280 ;; Parameters:    Size  Location     Type
  2281 ;;  num             4   14[COMRAM] long 
  2282 ;; Auto vars:     Size  Location     Type
  2283 ;;  buffer         12   18[COMRAM] unsigned char [12]
  2284 ;;  i               1   31[COMRAM] unsigned char 
  2285 ;;  isNegative      1   30[COMRAM] unsigned char 
  2286 ;; Return value:  Size  Location     Type
  2287 ;;                  1    wreg      void 
  2288 ;; Registers used:
  2289 ;;		wreg, fsr2l, fsr2h, status,2, status,0, cstack
  2290 ;; Tracked objects:
  2291 ;;		On entry : 0/0
  2292 ;;		On exit  : 0/0
  2293 ;;		Unchanged: 0/0
  2294 ;; Data sizes:     COMRAM   BANK0   BANK1   BANK2   BANK3   BANK4   BANK5   BANK6   BANK7
  2295 ;;      Params:         4       0       0       0       0       0       0       0       0
  2296 ;;      Locals:        14       0       0       0       0       0       0       0       0
  2297 ;;      Temps:          0       0       0       0       0       0       0       0       0
  2298 ;;      Totals:        18       0       0       0       0       0       0       0       0
  2299 ;;Total ram usage:       18 bytes
  2300 ;; Hardware stack levels used: 1
  2301 ;; This function calls:
  2302 ;;		___aldiv
  2303 ;;		___almod
  2304 ;;		_lcd_write
  2305 ;; This function is called by:
  2306 ;;		_idle
  2307 ;;		_subir
  2308 ;;		_bajar
  2309 ;; This function uses a non-reentrant model
  2310 ;;
  2311                           
  2312                           	psect	text8
  2313   000E3A                     __ptext8:
  2314                           	callstack 0
  2315   000E3A                     _lcd_printNum:
  2316                           	callstack 27
  2317   000E3A                     
  2318                           ;lcd.c: 257:     char buffer[12];;lcd.c: 258:     uint8_t i = 0;
  2319   000E3A  6A51               	clrf	lcd_printNum@i^0,c
  2320                           
  2321                           ;lcd.c: 259:     uint8_t isNegative = 0;
  2322   000E3C  6A50               	clrf	lcd_printNum@isNegative^0,c
  2323   000E3E                     
  2324                           ;lcd.c: 261:     if(num < 0) {
  2325   000E3E  BE43               	btfsc	(lcd_printNum@num+3)^0,7,c
  2326   000E40  EF26  F007         	goto	u1210
  2327   000E44  EF24  F007         	goto	u1211
  2328   000E48                     u1211:
  2329   000E48  EF30  F007         	goto	l2230
  2330   000E4C                     u1210:
  2331   000E4C                     
  2332                           ;lcd.c: 262:         isNegative = 1;
  2333   000E4C  0E01               	movlw	1
  2334   000E4E  6E50               	movwf	lcd_printNum@isNegative^0,c
  2335   000E50                     
  2336                           ;lcd.c: 263:         num = -num;
  2337   000E50  1E43               	comf	(lcd_printNum@num+3)^0,f,c
  2338   000E52  1E42               	comf	(lcd_printNum@num+2)^0,f,c
  2339   000E54  1E41               	comf	(lcd_printNum@num+1)^0,f,c
  2340   000E56  6C40               	negf	lcd_printNum@num^0,c
  2341   000E58  0E00               	movlw	0
  2342   000E5A  2241               	addwfc	(lcd_printNum@num+1)^0,f,c
  2343   000E5C  2242               	addwfc	(lcd_printNum@num+2)^0,f,c
  2344   000E5E  2243               	addwfc	(lcd_printNum@num+3)^0,f,c
  2345   000E60                     l2230:
  2346                           
  2347                           ;lcd.c: 268:         buffer[i++] = (num % 10) + '0';
  2348   000E60  5051               	movf	lcd_printNum@i^0,w,c
  2349   000E62  0F44               	addlw	low lcd_printNum@buffer
  2350   000E64  6ED9               	movwf	fsr2l,c
  2351   000E66  6ADA               	clrf	fsr2h,c
  2352   000E68  C040  F032         	movff	lcd_printNum@num,___almod@dividend
  2353   000E6C  C041  F033         	movff	lcd_printNum@num+1,___almod@dividend+1
  2354   000E70  C042  F034         	movff	lcd_printNum@num+2,___almod@dividend+2
  2355   000E74  C043  F035         	movff	lcd_printNum@num+3,___almod@dividend+3
  2356   000E78  0E0A               	movlw	10
  2357   000E7A  6E36               	movwf	___almod@divisor^0,c
  2358   000E7C  0E00               	movlw	0
  2359   000E7E  6E37               	movwf	(___almod@divisor+1)^0,c
  2360   000E80  0E00               	movlw	0
  2361   000E82  6E38               	movwf	(___almod@divisor+2)^0,c
  2362   000E84  0E00               	movlw	0
  2363   000E86  6E39               	movwf	(___almod@divisor+3)^0,c
  2364   000E88  EC95  F007         	call	___almod	;wreg free
  2365   000E8C  5032               	movf	?___almod^0,w,c
  2366   000E8E  0F30               	addlw	48
  2367   000E90  6EDF               	movwf	indf2,c
  2368   000E92  2A51               	incf	lcd_printNum@i^0,f,c
  2369   000E94                     
  2370                           ;lcd.c: 269:         num /= 10;
  2371   000E94  C040  F032         	movff	lcd_printNum@num,___aldiv@dividend
  2372   000E98  C041  F033         	movff	lcd_printNum@num+1,___aldiv@dividend+1
  2373   000E9C  C042  F034         	movff	lcd_printNum@num+2,___aldiv@dividend+2
  2374   000EA0  C043  F035         	movff	lcd_printNum@num+3,___aldiv@dividend+3
  2375   000EA4  0E0A               	movlw	10
  2376   000EA6  6E36               	movwf	___aldiv@divisor^0,c
  2377   000EA8  0E00               	movlw	0
  2378   000EAA  6E37               	movwf	(___aldiv@divisor+1)^0,c
  2379   000EAC  0E00               	movlw	0
  2380   000EAE  6E38               	movwf	(___aldiv@divisor+2)^0,c
  2381   000EB0  0E00               	movlw	0
  2382   000EB2  6E39               	movwf	(___aldiv@divisor+3)^0,c
  2383   000EB4  EC14  F006         	call	___aldiv	;wreg free
  2384   000EB8  C032  F040         	movff	?___aldiv,lcd_printNum@num
  2385   000EBC  C033  F041         	movff	?___aldiv+1,lcd_printNum@num+1
  2386   000EC0  C034  F042         	movff	?___aldiv+2,lcd_printNum@num+2
  2387   000EC4  C035  F043         	movff	?___aldiv+3,lcd_printNum@num+3
  2388   000EC8                     
  2389                           ;lcd.c: 270:     } while(num > 0);
  2390   000EC8  BE43               	btfsc	(lcd_printNum@num+3)^0,7,c
  2391   000ECA  EF73  F007         	goto	u1220
  2392   000ECE  5043               	movf	(lcd_printNum@num+3)^0,w,c
  2393   000ED0  1042               	iorwf	(lcd_printNum@num+2)^0,w,c
  2394   000ED2  1041               	iorwf	(lcd_printNum@num+1)^0,w,c
  2395   000ED4  E106               	bnz	u1221
  2396   000ED6  0440               	decf	lcd_printNum@num^0,w,c
  2397   000ED8  B0D8               	btfsc	status,0,c
  2398   000EDA  EF71  F007         	goto	u1221
  2399   000EDE  EF73  F007         	goto	u1220
  2400   000EE2                     u1221:
  2401   000EE2  EF30  F007         	goto	l2230
  2402   000EE6                     u1220:
  2403   000EE6                     
  2404                           ;lcd.c: 272:     if(isNegative) {
  2405   000EE6  5050               	movf	lcd_printNum@isNegative^0,w,c
  2406   000EE8  B4D8               	btfsc	status,2,c
  2407   000EEA  EF79  F007         	goto	u1231
  2408   000EEE  EF7B  F007         	goto	u1230
  2409   000EF2                     u1231:
  2410   000EF2  EF8C  F007         	goto	l2246
  2411   000EF6                     u1230:
  2412   000EF6                     
  2413                           ;lcd.c: 273:         buffer[i++] = '-';
  2414   000EF6  5051               	movf	lcd_printNum@i^0,w,c
  2415   000EF8  0F44               	addlw	low lcd_printNum@buffer
  2416   000EFA  6ED9               	movwf	fsr2l,c
  2417   000EFC  6ADA               	clrf	fsr2h,c
  2418   000EFE  0E2D               	movlw	45
  2419   000F00  6EDF               	movwf	indf2,c
  2420   000F02  2A51               	incf	lcd_printNum@i^0,f,c
  2421   000F04  EF8C  F007         	goto	l2246
  2422   000F08                     l2244:
  2423                           
  2424                           ;lcd.c: 278:         lcd_write(buffer[--i]);
  2425   000F08  0651               	decf	lcd_printNum@i^0,f,c
  2426   000F0A  5051               	movf	lcd_printNum@i^0,w,c
  2427   000F0C  0F44               	addlw	low lcd_printNum@buffer
  2428   000F0E  6ED9               	movwf	fsr2l,c
  2429   000F10  6ADA               	clrf	fsr2h,c
  2430   000F12  50DF               	movf	indf2,w,c
  2431   000F14  EC21  F00C         	call	_lcd_write
  2432   000F18                     l2246:
  2433                           
  2434                           ;lcd.c: 277:     while(i > 0) {
  2435   000F18  5051               	movf	lcd_printNum@i^0,w,c
  2436   000F1A  A4D8               	btfss	status,2,c
  2437   000F1C  EF92  F007         	goto	u1241
  2438   000F20  EF94  F007         	goto	u1240
  2439   000F24                     u1241:
  2440   000F24  EF84  F007         	goto	l2244
  2441   000F28                     u1240:
  2442   000F28  0012               	return		;funcret
  2443   000F2A                     __end_of_lcd_printNum:
  2444                           	callstack 0
  2445                           
  2446 ;; *************** function ___almod *****************
  2447 ;; Defined at:
  2448 ;;		line 7 in file "C:\Program Files\Microchip\xc8\v3.10\pic\sources\c99\common\almod.c"
  2449 ;; Parameters:    Size  Location     Type
  2450 ;;  dividend        4    0[COMRAM] long 
  2451 ;;  divisor         4    4[COMRAM] long 
  2452 ;; Auto vars:     Size  Location     Type
  2453 ;;  sign            1    9[COMRAM] unsigned char 
  2454 ;;  counter         1    8[COMRAM] unsigned char 
  2455 ;; Return value:  Size  Location     Type
  2456 ;;                  4    0[COMRAM] long 
  2457 ;; Registers used:
  2458 ;;		wreg, status,2, status,0
  2459 ;; Tracked objects:
  2460 ;;		On entry : 0/0
  2461 ;;		On exit  : 0/0
  2462 ;;		Unchanged: 0/0
  2463 ;; Data sizes:     COMRAM   BANK0   BANK1   BANK2   BANK3   BANK4   BANK5   BANK6   BANK7
  2464 ;;      Params:         8       0       0       0       0       0       0       0       0
  2465 ;;      Locals:         2       0       0       0       0       0       0       0       0
  2466 ;;      Temps:          0       0       0       0       0       0       0       0       0
  2467 ;;      Totals:        10       0       0       0       0       0       0       0       0
  2468 ;;Total ram usage:       10 bytes
  2469 ;; Hardware stack levels used: 1
  2470 ;; This function calls:
  2471 ;;		Nothing
  2472 ;; This function is called by:
  2473 ;;		_lcd_printNum
  2474 ;; This function uses a non-reentrant model
  2475 ;;
  2476                           
  2477                           	psect	text9
  2478   000F2A                     __ptext9:
  2479                           	callstack 0
  2480   000F2A                     ___almod:
  2481                           	callstack 26
  2482   000F2A  6A3B               	clrf	___almod@sign^0,c
  2483   000F2C  BE35               	btfsc	(___almod@dividend+3)^0,7,c
  2484   000F2E  EF9D  F007         	goto	u1090
  2485   000F32  EF9B  F007         	goto	u1091
  2486   000F36                     u1091:
  2487   000F36  EFA7  F007         	goto	l2144
  2488   000F3A                     u1090:
  2489   000F3A  1E35               	comf	(___almod@dividend+3)^0,f,c
  2490   000F3C  1E34               	comf	(___almod@dividend+2)^0,f,c
  2491   000F3E  1E33               	comf	(___almod@dividend+1)^0,f,c
  2492   000F40  6C32               	negf	___almod@dividend^0,c
  2493   000F42  0E00               	movlw	0
  2494   000F44  2233               	addwfc	(___almod@dividend+1)^0,f,c
  2495   000F46  2234               	addwfc	(___almod@dividend+2)^0,f,c
  2496   000F48  2235               	addwfc	(___almod@dividend+3)^0,f,c
  2497   000F4A  0E01               	movlw	1
  2498   000F4C  6E3B               	movwf	___almod@sign^0,c
  2499   000F4E                     l2144:
  2500   000F4E  BE39               	btfsc	(___almod@divisor+3)^0,7,c
  2501   000F50  EFAE  F007         	goto	u1100
  2502   000F54  EFAC  F007         	goto	u1101
  2503   000F58                     u1101:
  2504   000F58  EFB6  F007         	goto	l2148
  2505   000F5C                     u1100:
  2506   000F5C  1E39               	comf	(___almod@divisor+3)^0,f,c
  2507   000F5E  1E38               	comf	(___almod@divisor+2)^0,f,c
  2508   000F60  1E37               	comf	(___almod@divisor+1)^0,f,c
  2509   000F62  6C36               	negf	___almod@divisor^0,c
  2510   000F64  0E00               	movlw	0
  2511   000F66  2237               	addwfc	(___almod@divisor+1)^0,f,c
  2512   000F68  2238               	addwfc	(___almod@divisor+2)^0,f,c
  2513   000F6A  2239               	addwfc	(___almod@divisor+3)^0,f,c
  2514   000F6C                     l2148:
  2515   000F6C  5036               	movf	___almod@divisor^0,w,c
  2516   000F6E  1037               	iorwf	(___almod@divisor+1)^0,w,c
  2517   000F70  1038               	iorwf	(___almod@divisor+2)^0,w,c
  2518   000F72  1039               	iorwf	(___almod@divisor+3)^0,w,c
  2519   000F74  B4D8               	btfsc	status,2,c
  2520   000F76  EFBF  F007         	goto	u1111
  2521   000F7A  EFC1  F007         	goto	u1110
  2522   000F7E                     u1111:
  2523   000F7E  EFF1  F007         	goto	l2164
  2524   000F82                     u1110:
  2525   000F82  0E01               	movlw	1
  2526   000F84  6E3A               	movwf	___almod@counter^0,c
  2527   000F86  EFCB  F007         	goto	l2154
  2528   000F8A                     l2152:
  2529   000F8A  90D8               	bcf	status,0,c
  2530   000F8C  3636               	rlcf	___almod@divisor^0,f,c
  2531   000F8E  3637               	rlcf	(___almod@divisor+1)^0,f,c
  2532   000F90  3638               	rlcf	(___almod@divisor+2)^0,f,c
  2533   000F92  3639               	rlcf	(___almod@divisor+3)^0,f,c
  2534   000F94  2A3A               	incf	___almod@counter^0,f,c
  2535   000F96                     l2154:
  2536   000F96  AE39               	btfss	(___almod@divisor+3)^0,7,c
  2537   000F98  EFD0  F007         	goto	u1121
  2538   000F9C  EFD2  F007         	goto	u1120
  2539   000FA0                     u1121:
  2540   000FA0  EFC5  F007         	goto	l2152
  2541   000FA4                     u1120:
  2542   000FA4                     l2156:
  2543   000FA4  5036               	movf	___almod@divisor^0,w,c
  2544   000FA6  5C32               	subwf	___almod@dividend^0,w,c
  2545   000FA8  5037               	movf	(___almod@divisor+1)^0,w,c
  2546   000FAA  5833               	subwfb	(___almod@dividend+1)^0,w,c
  2547   000FAC  5038               	movf	(___almod@divisor+2)^0,w,c
  2548   000FAE  5834               	subwfb	(___almod@dividend+2)^0,w,c
  2549   000FB0  5039               	movf	(___almod@divisor+3)^0,w,c
  2550   000FB2  5835               	subwfb	(___almod@dividend+3)^0,w,c
  2551   000FB4  A0D8               	btfss	status,0,c
  2552   000FB6  EFDF  F007         	goto	u1131
  2553   000FBA  EFE1  F007         	goto	u1130
  2554   000FBE                     u1131:
  2555   000FBE  EFE9  F007         	goto	l2160
  2556   000FC2                     u1130:
  2557   000FC2  5036               	movf	___almod@divisor^0,w,c
  2558   000FC4  5E32               	subwf	___almod@dividend^0,f,c
  2559   000FC6  5037               	movf	(___almod@divisor+1)^0,w,c
  2560   000FC8  5A33               	subwfb	(___almod@dividend+1)^0,f,c
  2561   000FCA  5038               	movf	(___almod@divisor+2)^0,w,c
  2562   000FCC  5A34               	subwfb	(___almod@dividend+2)^0,f,c
  2563   000FCE  5039               	movf	(___almod@divisor+3)^0,w,c
  2564   000FD0  5A35               	subwfb	(___almod@dividend+3)^0,f,c
  2565   000FD2                     l2160:
  2566   000FD2  90D8               	bcf	status,0,c
  2567   000FD4  3239               	rrcf	(___almod@divisor+3)^0,f,c
  2568   000FD6  3238               	rrcf	(___almod@divisor+2)^0,f,c
  2569   000FD8  3237               	rrcf	(___almod@divisor+1)^0,f,c
  2570   000FDA  3236               	rrcf	___almod@divisor^0,f,c
  2571   000FDC  2E3A               	decfsz	___almod@counter^0,f,c
  2572   000FDE  EFD2  F007         	goto	l2156
  2573   000FE2                     l2164:
  2574   000FE2  503B               	movf	___almod@sign^0,w,c
  2575   000FE4  B4D8               	btfsc	status,2,c
  2576   000FE6  EFF7  F007         	goto	u1141
  2577   000FEA  EFF9  F007         	goto	u1140
  2578   000FEE                     u1141:
  2579   000FEE  EF01  F008         	goto	l2168
  2580   000FF2                     u1140:
  2581   000FF2  1E35               	comf	(___almod@dividend+3)^0,f,c
  2582   000FF4  1E34               	comf	(___almod@dividend+2)^0,f,c
  2583   000FF6  1E33               	comf	(___almod@dividend+1)^0,f,c
  2584   000FF8  6C32               	negf	___almod@dividend^0,c
  2585   000FFA  0E00               	movlw	0
  2586   000FFC  2233               	addwfc	(___almod@dividend+1)^0,f,c
  2587   000FFE  2234               	addwfc	(___almod@dividend+2)^0,f,c
  2588   001000  2235               	addwfc	(___almod@dividend+3)^0,f,c
  2589   001002                     l2168:
  2590   001002  C032  F032         	movff	___almod@dividend,?___almod
  2591   001006  C033  F033         	movff	___almod@dividend+1,?___almod+1
  2592   00100A  C034  F034         	movff	___almod@dividend+2,?___almod+2
  2593   00100E  C035  F035         	movff	___almod@dividend+3,?___almod+3
  2594   001012  0012               	return		;funcret
  2595   001014                     __end_of___almod:
  2596                           	callstack 0
  2597                           
  2598 ;; *************** function ___aldiv *****************
  2599 ;; Defined at:
  2600 ;;		line 7 in file "C:\Program Files\Microchip\xc8\v3.10\pic\sources\c99\common\aldiv.c"
  2601 ;; Parameters:    Size  Location     Type
  2602 ;;  dividend        4    0[COMRAM] long 
  2603 ;;  divisor         4    4[COMRAM] long 
  2604 ;; Auto vars:     Size  Location     Type
  2605 ;;  quotient        4   10[COMRAM] long 
  2606 ;;  sign            1    9[COMRAM] unsigned char 
  2607 ;;  counter         1    8[COMRAM] unsigned char 
  2608 ;; Return value:  Size  Location     Type
  2609 ;;                  4    0[COMRAM] long 
  2610 ;; Registers used:
  2611 ;;		wreg, status,2, status,0
  2612 ;; Tracked objects:
  2613 ;;		On entry : 0/0
  2614 ;;		On exit  : 0/0
  2615 ;;		Unchanged: 0/0
  2616 ;; Data sizes:     COMRAM   BANK0   BANK1   BANK2   BANK3   BANK4   BANK5   BANK6   BANK7
  2617 ;;      Params:         8       0       0       0       0       0       0       0       0
  2618 ;;      Locals:         6       0       0       0       0       0       0       0       0
  2619 ;;      Temps:          0       0       0       0       0       0       0       0       0
  2620 ;;      Totals:        14       0       0       0       0       0       0       0       0
  2621 ;;Total ram usage:       14 bytes
  2622 ;; Hardware stack levels used: 1
  2623 ;; This function calls:
  2624 ;;		Nothing
  2625 ;; This function is called by:
  2626 ;;		_lcd_printNum
  2627 ;; This function uses a non-reentrant model
  2628 ;;
  2629                           
  2630                           	psect	text10
  2631   000C28                     __ptext10:
  2632                           	callstack 0
  2633   000C28                     ___aldiv:
  2634                           	callstack 26
  2635   000C28  6A3B               	clrf	___aldiv@sign^0,c
  2636   000C2A  BE39               	btfsc	(___aldiv@divisor+3)^0,7,c
  2637   000C2C  EF1C  F006         	goto	u1030
  2638   000C30  EF1A  F006         	goto	u1031
  2639   000C34                     u1031:
  2640   000C34  EF26  F006         	goto	l2100
  2641   000C38                     u1030:
  2642   000C38  1E39               	comf	(___aldiv@divisor+3)^0,f,c
  2643   000C3A  1E38               	comf	(___aldiv@divisor+2)^0,f,c
  2644   000C3C  1E37               	comf	(___aldiv@divisor+1)^0,f,c
  2645   000C3E  6C36               	negf	___aldiv@divisor^0,c
  2646   000C40  0E00               	movlw	0
  2647   000C42  2237               	addwfc	(___aldiv@divisor+1)^0,f,c
  2648   000C44  2238               	addwfc	(___aldiv@divisor+2)^0,f,c
  2649   000C46  2239               	addwfc	(___aldiv@divisor+3)^0,f,c
  2650   000C48  0E01               	movlw	1
  2651   000C4A  6E3B               	movwf	___aldiv@sign^0,c
  2652   000C4C                     l2100:
  2653   000C4C  BE35               	btfsc	(___aldiv@dividend+3)^0,7,c
  2654   000C4E  EF2D  F006         	goto	u1040
  2655   000C52  EF2B  F006         	goto	u1041
  2656   000C56                     u1041:
  2657   000C56  EF37  F006         	goto	l2106
  2658   000C5A                     u1040:
  2659   000C5A  1E35               	comf	(___aldiv@dividend+3)^0,f,c
  2660   000C5C  1E34               	comf	(___aldiv@dividend+2)^0,f,c
  2661   000C5E  1E33               	comf	(___aldiv@dividend+1)^0,f,c
  2662   000C60  6C32               	negf	___aldiv@dividend^0,c
  2663   000C62  0E00               	movlw	0
  2664   000C64  2233               	addwfc	(___aldiv@dividend+1)^0,f,c
  2665   000C66  2234               	addwfc	(___aldiv@dividend+2)^0,f,c
  2666   000C68  2235               	addwfc	(___aldiv@dividend+3)^0,f,c
  2667   000C6A  0E01               	movlw	1
  2668   000C6C  1A3B               	xorwf	___aldiv@sign^0,f,c
  2669   000C6E                     l2106:
  2670   000C6E  0E00               	movlw	0
  2671   000C70  6E3C               	movwf	___aldiv@quotient^0,c
  2672   000C72  0E00               	movlw	0
  2673   000C74  6E3D               	movwf	(___aldiv@quotient+1)^0,c
  2674   000C76  0E00               	movlw	0
  2675   000C78  6E3E               	movwf	(___aldiv@quotient+2)^0,c
  2676   000C7A  0E00               	movlw	0
  2677   000C7C  6E3F               	movwf	(___aldiv@quotient+3)^0,c
  2678   000C7E  5036               	movf	___aldiv@divisor^0,w,c
  2679   000C80  1037               	iorwf	(___aldiv@divisor+1)^0,w,c
  2680   000C82  1038               	iorwf	(___aldiv@divisor+2)^0,w,c
  2681   000C84  1039               	iorwf	(___aldiv@divisor+3)^0,w,c
  2682   000C86  B4D8               	btfsc	status,2,c
  2683   000C88  EF48  F006         	goto	u1051
  2684   000C8C  EF4A  F006         	goto	u1050
  2685   000C90                     u1051:
  2686   000C90  EF80  F006         	goto	l2128
  2687   000C94                     u1050:
  2688   000C94  0E01               	movlw	1
  2689   000C96  6E3A               	movwf	___aldiv@counter^0,c
  2690   000C98  EF54  F006         	goto	l2114
  2691   000C9C                     l2112:
  2692   000C9C  90D8               	bcf	status,0,c
  2693   000C9E  3636               	rlcf	___aldiv@divisor^0,f,c
  2694   000CA0  3637               	rlcf	(___aldiv@divisor+1)^0,f,c
  2695   000CA2  3638               	rlcf	(___aldiv@divisor+2)^0,f,c
  2696   000CA4  3639               	rlcf	(___aldiv@divisor+3)^0,f,c
  2697   000CA6  2A3A               	incf	___aldiv@counter^0,f,c
  2698   000CA8                     l2114:
  2699   000CA8  AE39               	btfss	(___aldiv@divisor+3)^0,7,c
  2700   000CAA  EF59  F006         	goto	u1061
  2701   000CAE  EF5B  F006         	goto	u1060
  2702   000CB2                     u1061:
  2703   000CB2  EF4E  F006         	goto	l2112
  2704   000CB6                     u1060:
  2705   000CB6                     l2116:
  2706   000CB6  90D8               	bcf	status,0,c
  2707   000CB8  363C               	rlcf	___aldiv@quotient^0,f,c
  2708   000CBA  363D               	rlcf	(___aldiv@quotient+1)^0,f,c
  2709   000CBC  363E               	rlcf	(___aldiv@quotient+2)^0,f,c
  2710   000CBE  363F               	rlcf	(___aldiv@quotient+3)^0,f,c
  2711   000CC0  5036               	movf	___aldiv@divisor^0,w,c
  2712   000CC2  5C32               	subwf	___aldiv@dividend^0,w,c
  2713   000CC4  5037               	movf	(___aldiv@divisor+1)^0,w,c
  2714   000CC6  5833               	subwfb	(___aldiv@dividend+1)^0,w,c
  2715   000CC8  5038               	movf	(___aldiv@divisor+2)^0,w,c
  2716   000CCA  5834               	subwfb	(___aldiv@dividend+2)^0,w,c
  2717   000CCC  5039               	movf	(___aldiv@divisor+3)^0,w,c
  2718   000CCE  5835               	subwfb	(___aldiv@dividend+3)^0,w,c
  2719   000CD0  A0D8               	btfss	status,0,c
  2720   000CD2  EF6D  F006         	goto	u1071
  2721   000CD6  EF6F  F006         	goto	u1070
  2722   000CDA                     u1071:
  2723   000CDA  EF78  F006         	goto	l2124
  2724   000CDE                     u1070:
  2725   000CDE  5036               	movf	___aldiv@divisor^0,w,c
  2726   000CE0  5E32               	subwf	___aldiv@dividend^0,f,c
  2727   000CE2  5037               	movf	(___aldiv@divisor+1)^0,w,c
  2728   000CE4  5A33               	subwfb	(___aldiv@dividend+1)^0,f,c
  2729   000CE6  5038               	movf	(___aldiv@divisor+2)^0,w,c
  2730   000CE8  5A34               	subwfb	(___aldiv@dividend+2)^0,f,c
  2731   000CEA  5039               	movf	(___aldiv@divisor+3)^0,w,c
  2732   000CEC  5A35               	subwfb	(___aldiv@dividend+3)^0,f,c
  2733   000CEE  803C               	bsf	___aldiv@quotient^0,0,c
  2734   000CF0                     l2124:
  2735   000CF0  90D8               	bcf	status,0,c
  2736   000CF2  3239               	rrcf	(___aldiv@divisor+3)^0,f,c
  2737   000CF4  3238               	rrcf	(___aldiv@divisor+2)^0,f,c
  2738   000CF6  3237               	rrcf	(___aldiv@divisor+1)^0,f,c
  2739   000CF8  3236               	rrcf	___aldiv@divisor^0,f,c
  2740   000CFA  2E3A               	decfsz	___aldiv@counter^0,f,c
  2741   000CFC  EF5B  F006         	goto	l2116
  2742   000D00                     l2128:
  2743   000D00  503B               	movf	___aldiv@sign^0,w,c
  2744   000D02  B4D8               	btfsc	status,2,c
  2745   000D04  EF86  F006         	goto	u1081
  2746   000D08  EF88  F006         	goto	u1080
  2747   000D0C                     u1081:
  2748   000D0C  EF90  F006         	goto	l2132
  2749   000D10                     u1080:
  2750   000D10  1E3F               	comf	(___aldiv@quotient+3)^0,f,c
  2751   000D12  1E3E               	comf	(___aldiv@quotient+2)^0,f,c
  2752   000D14  1E3D               	comf	(___aldiv@quotient+1)^0,f,c
  2753   000D16  6C3C               	negf	___aldiv@quotient^0,c
  2754   000D18  0E00               	movlw	0
  2755   000D1A  223D               	addwfc	(___aldiv@quotient+1)^0,f,c
  2756   000D1C  223E               	addwfc	(___aldiv@quotient+2)^0,f,c
  2757   000D1E  223F               	addwfc	(___aldiv@quotient+3)^0,f,c
  2758   000D20                     l2132:
  2759   000D20  C03C  F032         	movff	___aldiv@quotient,?___aldiv
  2760   000D24  C03D  F033         	movff	___aldiv@quotient+1,?___aldiv+1
  2761   000D28  C03E  F034         	movff	___aldiv@quotient+2,?___aldiv+2
  2762   000D2C  C03F  F035         	movff	___aldiv@quotient+3,?___aldiv+3
  2763   000D30  0012               	return		;funcret
  2764   000D32                     __end_of___aldiv:
  2765                           	callstack 0
  2766                           
  2767 ;; *************** function _lcd_printCenter *****************
  2768 ;; Defined at:
  2769 ;;		line 283 in file "lcd.c"
  2770 ;; Parameters:    Size  Location     Type
  2771 ;;  str             1    8[COMRAM] PTR const unsigned char 
  2772 ;;		 -> STR_13(16), STR_12(10), STR_11(14), STR_10(10), 
  2773 ;;		 -> STR_9(14), STR_7(11), STR_5(12), STR_4(11), 
  2774 ;;		 -> STR_3(7), STR_1(11), 
  2775 ;;  row             1    9[COMRAM] unsigned char 
  2776 ;; Auto vars:     Size  Location     Type
  2777 ;;  len             1   11[COMRAM] unsigned char 
  2778 ;;  pos             1   10[COMRAM] unsigned char 
  2779 ;; Return value:  Size  Location     Type
  2780 ;;                  1    wreg      void 
  2781 ;; Registers used:
  2782 ;;		wreg, fsr2l, fsr2h, status,2, status,0, tblptrl, tblptrh, tblptru, cstack
  2783 ;; Tracked objects:
  2784 ;;		On entry : 0/0
  2785 ;;		On exit  : 0/0
  2786 ;;		Unchanged: 0/0
  2787 ;; Data sizes:     COMRAM   BANK0   BANK1   BANK2   BANK3   BANK4   BANK5   BANK6   BANK7
  2788 ;;      Params:         2       0       0       0       0       0       0       0       0
  2789 ;;      Locals:         2       0       0       0       0       0       0       0       0
  2790 ;;      Temps:          0       0       0       0       0       0       0       0       0
  2791 ;;      Totals:         4       0       0       0       0       0       0       0       0
  2792 ;;Total ram usage:        4 bytes
  2793 ;; Hardware stack levels used: 1
  2794 ;; This function calls:
  2795 ;;		___awdiv
  2796 ;;		_lcd_print
  2797 ;;		_lcd_setCursor
  2798 ;;		_strlen
  2799 ;; This function is called by:
  2800 ;;		_idle
  2801 ;;		_emergency_stop_sequence
  2802 ;;		_subir
  2803 ;;		_bajar
  2804 ;;		_main
  2805 ;; This function uses a non-reentrant model
  2806 ;;
  2807                           
  2808                           	psect	text11
  2809   001618                     __ptext11:
  2810                           	callstack 0
  2811   001618                     _lcd_printCenter:
  2812                           	callstack 27
  2813   001618                     
  2814                           ;lcd.c: 284:     uint8_t len = strlen(str);
  2815   001618  C03A  F032         	movff	lcd_printCenter@str,strlen@s
  2816   00161C  EC6F  F00B         	call	_strlen	;wreg free
  2817   001620  5032               	movf	?_strlen^0,w,c
  2818   001622  6E3D               	movwf	lcd_printCenter@len^0,c
  2819   001624                     
  2820                           ;lcd.c: 285:     uint8_t pos = 0;
  2821   001624  6A3C               	clrf	lcd_printCenter@pos^0,c
  2822   001626                     
  2823                           ;lcd.c: 287:     if(len < lcd_config.numCols) {
  2824   001626  5005               	movf	(_lcd_config+4)^0,w,c
  2825   001628  5C3D               	subwf	lcd_printCenter@len^0,w,c
  2826   00162A  B0D8               	btfsc	status,0,c
  2827   00162C  EF1A  F00B         	goto	u1251
  2828   001630  EF1C  F00B         	goto	u1250
  2829   001634                     u1251:
  2830   001634  EF29  F00B         	goto	l2256
  2831   001638                     u1250:
  2832   001638                     
  2833                           ;lcd.c: 288:         pos = (lcd_config.numCols - len) / 2;
  2834   001638  503D               	movf	lcd_printCenter@len^0,w,c
  2835   00163A  5C05               	subwf	(_lcd_config+4)^0,w,c
  2836   00163C  6E32               	movwf	___awdiv@dividend^0,c
  2837   00163E  6A33               	clrf	(___awdiv@dividend+1)^0,c
  2838   001640  A0D8               	btfss	status,0,c
  2839   001642  0633               	decf	(___awdiv@dividend+1)^0,f,c
  2840   001644  6A35               	clrf	(___awdiv@divisor+1)^0,c
  2841   001646  0E02               	movlw	2
  2842   001648  6E34               	movwf	___awdiv@divisor^0,c
  2843   00164A  EC6A  F008         	call	___awdiv	;wreg free
  2844   00164E  5032               	movf	?___awdiv^0,w,c
  2845   001650  6E3C               	movwf	lcd_printCenter@pos^0,c
  2846   001652                     l2256:
  2847                           
  2848                           ;lcd.c: 291:     lcd_setCursor(pos, row);
  2849   001652  C03B  F037         	movff	lcd_printCenter@row,lcd_setCursor@row
  2850   001656  503C               	movf	lcd_printCenter@pos^0,w,c
  2851   001658  EC89  F00B         	call	_lcd_setCursor
  2852   00165C                     
  2853                           ;lcd.c: 292:     lcd_print(str);
  2854   00165C  C03A  F037         	movff	lcd_printCenter@str,lcd_print@str
  2855   001660  ECA3  F00B         	call	_lcd_print	;wreg free
  2856   001664  0012               	return		;funcret
  2857   001666                     __end_of_lcd_printCenter:
  2858                           	callstack 0
  2859                           
  2860 ;; *************** function _strlen *****************
  2861 ;; Defined at:
  2862 ;;		line 5 in file "C:\Program Files\Microchip\xc8\v3.10\pic\sources\c99\common\strlen.c"
  2863 ;; Parameters:    Size  Location     Type
  2864 ;;  s               1    0[COMRAM] PTR const unsigned char 
  2865 ;;		 -> STR_13(16), STR_12(10), STR_11(14), STR_10(10), 
  2866 ;;		 -> STR_9(14), STR_7(11), STR_5(12), STR_4(11), 
  2867 ;;		 -> STR_3(7), STR_1(11), 
  2868 ;; Auto vars:     Size  Location     Type
  2869 ;;  a               1    2[COMRAM] PTR const unsigned char 
  2870 ;;		 -> STR_13(16), STR_12(10), STR_11(14), STR_10(10), 
  2871 ;;		 -> STR_9(14), STR_7(11), STR_5(12), STR_4(11), 
  2872 ;;		 -> STR_3(7), STR_1(11), 
  2873 ;; Return value:  Size  Location     Type
  2874 ;;                  2    0[COMRAM] unsigned int 
  2875 ;; Registers used:
  2876 ;;		wreg, status,2, status,0, tblptrl, tblptrh, tblptru
  2877 ;; Tracked objects:
  2878 ;;		On entry : 0/0
  2879 ;;		On exit  : 0/0
  2880 ;;		Unchanged: 0/0
  2881 ;; Data sizes:     COMRAM   BANK0   BANK1   BANK2   BANK3   BANK4   BANK5   BANK6   BANK7
  2882 ;;      Params:         2       0       0       0       0       0       0       0       0
  2883 ;;      Locals:         1       0       0       0       0       0       0       0       0
  2884 ;;      Temps:          0       0       0       0       0       0       0       0       0
  2885 ;;      Totals:         3       0       0       0       0       0       0       0       0
  2886 ;;Total ram usage:        3 bytes
  2887 ;; Hardware stack levels used: 1
  2888 ;; This function calls:
  2889 ;;		Nothing
  2890 ;; This function is called by:
  2891 ;;		_lcd_printCenter
  2892 ;;		_lcd_scrollText
  2893 ;; This function uses a non-reentrant model
  2894 ;;
  2895                           
  2896                           	psect	text12
  2897   0016DE                     __ptext12:
  2898                           	callstack 0
  2899   0016DE                     _strlen:
  2900                           	callstack 26
  2901   0016DE  C032  F034         	movff	strlen@s,strlen@a
  2902   0016E2  EF74  F00B         	goto	l2086
  2903   0016E6                     l2084:
  2904   0016E6  2A32               	incf	strlen@s^0,f,c
  2905   0016E8                     l2086:
  2906   0016E8  C032  FFF6         	movff	strlen@s,tblptrl
  2907   0016EC                     	if	1	;There is more than 1 active tblptr byte
  2908   0016EC  0E08               	movlw	high __smallconst
  2909   0016EE  6EF7               	movwf	tblptrh,c
  2910   0016F0                     	endif
  2911   0016F0                     	if	0	;tblptru may be non-zero
  2912   0016F0                     	endif
  2913   0016F0                     	if	0	;tblptru may be non-zero
  2914   0016F0                     	endif
  2915   0016F0  0008               	tblrd		*
  2916   0016F2  50F5               	movf	tablat,w,c
  2917   0016F4  0900               	iorlw	0
  2918   0016F6  A4D8               	btfss	status,2,c
  2919   0016F8  EF80  F00B         	goto	u1021
  2920   0016FC  EF82  F00B         	goto	u1020
  2921   001700                     u1021:
  2922   001700  EF73  F00B         	goto	l2084
  2923   001704                     u1020:
  2924   001704  5034               	movf	strlen@a^0,w,c
  2925   001706  5C32               	subwf	strlen@s^0,w,c
  2926   001708  6E32               	movwf	?_strlen^0,c
  2927   00170A  6A33               	clrf	(?_strlen+1)^0,c
  2928   00170C  BE32               	btfsc	?_strlen^0,7,c
  2929   00170E  0633               	decf	(?_strlen+1)^0,f,c
  2930   001710  0012               	return		;funcret
  2931   001712                     __end_of_strlen:
  2932                           	callstack 0
  2933                           
  2934 ;; *************** function _lcd_setCursor *****************
  2935 ;; Defined at:
  2936 ;;		line 152 in file "lcd.c"
  2937 ;; Parameters:    Size  Location     Type
  2938 ;;  col             1    wreg     unsigned char 
  2939 ;;  row             1    5[COMRAM] unsigned char 
  2940 ;; Auto vars:     Size  Location     Type
  2941 ;;  col             1    6[COMRAM] unsigned char 
  2942 ;; Return value:  Size  Location     Type
  2943 ;;                  1    wreg      void 
  2944 ;; Registers used:
  2945 ;;		wreg, fsr2l, fsr2h, status,2, status,0, cstack
  2946 ;; Tracked objects:
  2947 ;;		On entry : 0/0
  2948 ;;		On exit  : 0/0
  2949 ;;		Unchanged: 0/0
  2950 ;; Data sizes:     COMRAM   BANK0   BANK1   BANK2   BANK3   BANK4   BANK5   BANK6   BANK7
  2951 ;;      Params:         1       0       0       0       0       0       0       0       0
  2952 ;;      Locals:         1       0       0       0       0       0       0       0       0
  2953 ;;      Temps:          0       0       0       0       0       0       0       0       0
  2954 ;;      Totals:         2       0       0       0       0       0       0       0       0
  2955 ;;Total ram usage:        2 bytes
  2956 ;; Hardware stack levels used: 1
  2957 ;; This function calls:
  2958 ;;		_lcd_command
  2959 ;; This function is called by:
  2960 ;;		_lcd_printCenter
  2961 ;;		_idle
  2962 ;;		_subir
  2963 ;;		_bajar
  2964 ;;		_lcd_createChar
  2965 ;;		_lcd_scrollText
  2966 ;; This function uses a non-reentrant model
  2967 ;;
  2968                           
  2969                           	psect	text13
  2970   001712                     __ptext13:
  2971                           	callstack 0
  2972   001712                     _lcd_setCursor:
  2973                           	callstack 26
  2974                           
  2975                           ;incstack = 0
  2976                           ;lcd_setCursor@col stored from wreg
  2977   001712  6E38               	movwf	lcd_setCursor@col^0,c
  2978   001714                     
  2979                           ;lcd.c: 153:     static uint8_t row_offsets[] = {0x00, 0x40, 0x14, 0x54};;lcd.c: 155:   
      +                            if(row >= lcd_config.numLines) {
  2980   001714  5004               	movf	(_lcd_config+3)^0,w,c
  2981   001716  5C37               	subwf	lcd_setCursor@row^0,w,c
  2982   001718  A0D8               	btfss	status,0,c
  2983   00171A  EF91  F00B         	goto	u1001
  2984   00171E  EF93  F00B         	goto	u1000
  2985   001722                     u1001:
  2986   001722  EF95  F00B         	goto	l2068
  2987   001726                     u1000:
  2988   001726                     
  2989                           ;lcd.c: 156:         row = lcd_config.numLines - 1;
  2990   001726  0404               	decf	(_lcd_config+3)^0,w,c
  2991   001728  6E37               	movwf	lcd_setCursor@row^0,c
  2992   00172A                     l2068:
  2993                           
  2994                           ;lcd.c: 159:     lcd_config.currLine = row;
  2995   00172A  C037  F006         	movff	lcd_setCursor@row,_lcd_config+5
  2996   00172E                     
  2997                           ;lcd.c: 160:     lcd_config.currCol = col;
  2998   00172E  C038  F007         	movff	lcd_setCursor@col,_lcd_config+6
  2999   001732                     
  3000                           ;lcd.c: 162:     lcd_command(0x80 | (col + row_offsets[row]));
  3001   001732  5037               	movf	lcd_setCursor@row^0,w,c
  3002   001734  0F5A               	addlw	low lcd_setCursor@row_offsets
  3003   001736  6ED9               	movwf	fsr2l,c
  3004   001738  6ADA               	clrf	fsr2h,c
  3005   00173A  50DF               	movf	indf2,w,c
  3006   00173C  2438               	addwf	lcd_setCursor@col^0,w,c
  3007   00173E  0980               	iorlw	128
  3008   001740  EC33  F00B         	call	_lcd_command
  3009   001744  0012               	return		;funcret
  3010   001746                     __end_of_lcd_setCursor:
  3011                           	callstack 0
  3012                           
  3013 ;; *************** function _lcd_print *****************
  3014 ;; Defined at:
  3015 ;;		line 249 in file "lcd.c"
  3016 ;; Parameters:    Size  Location     Type
  3017 ;;  str             1    5[COMRAM] PTR const unsigned char 
  3018 ;;		 -> STR_13(16), STR_12(10), STR_11(14), STR_10(10), 
  3019 ;;		 -> STR_9(14), STR_8(7), STR_7(11), STR_6(7), 
  3020 ;;		 -> STR_5(12), STR_4(11), STR_3(7), STR_2(7), 
  3021 ;;		 -> STR_1(11), 
  3022 ;; Auto vars:     Size  Location     Type
  3023 ;;		None
  3024 ;; Return value:  Size  Location     Type
  3025 ;;                  1    wreg      void 
  3026 ;; Registers used:
  3027 ;;		wreg, status,2, status,0, tblptrl, tblptrh, tblptru, cstack
  3028 ;; Tracked objects:
  3029 ;;		On entry : 0/0
  3030 ;;		On exit  : 0/0
  3031 ;;		Unchanged: 0/0
  3032 ;; Data sizes:     COMRAM   BANK0   BANK1   BANK2   BANK3   BANK4   BANK5   BANK6   BANK7
  3033 ;;      Params:         1       0       0       0       0       0       0       0       0
  3034 ;;      Locals:         0       0       0       0       0       0       0       0       0
  3035 ;;      Temps:          0       0       0       0       0       0       0       0       0
  3036 ;;      Totals:         1       0       0       0       0       0       0       0       0
  3037 ;;Total ram usage:        1 bytes
  3038 ;; Hardware stack levels used: 1
  3039 ;; This function calls:
  3040 ;;		_lcd_write
  3041 ;; This function is called by:
  3042 ;;		_lcd_printCenter
  3043 ;;		_idle
  3044 ;;		_subir
  3045 ;;		_bajar
  3046 ;;		_lcd_scrollText
  3047 ;; This function uses a non-reentrant model
  3048 ;;
  3049                           
  3050                           	psect	text14
  3051   001746                     __ptext14:
  3052                           	callstack 0
  3053   001746                     _lcd_print:
  3054                           	callstack 26
  3055   001746                     
  3056                           ;lcd.c: 250:     while(*str) {
  3057   001746  EFAE  F00B         	goto	l2080
  3058   00174A                     l2076:
  3059                           
  3060                           ;lcd.c: 251:         lcd_write(*str++);
  3061   00174A  C037  FFF6         	movff	lcd_print@str,tblptrl
  3062   00174E                     	if	1	;There is more than 1 active tblptr byte
  3063   00174E  0E08               	movlw	high __smallconst
  3064   001750  6EF7               	movwf	tblptrh,c
  3065   001752                     	endif
  3066   001752                     	if	0	;tblptru may be non-zero
  3067   001752                     	endif
  3068   001752                     	if	0	;tblptru may be non-zero
  3069   001752                     	endif
  3070   001752  0008               	tblrd		*
  3071   001754  50F5               	movf	tablat,w,c
  3072   001756  EC21  F00C         	call	_lcd_write
  3073   00175A  2A37               	incf	lcd_print@str^0,f,c
  3074   00175C                     l2080:
  3075                           
  3076                           ;lcd.c: 250:     while(*str) {
  3077   00175C  C037  FFF6         	movff	lcd_print@str,tblptrl
  3078   001760                     	if	1	;There is more than 1 active tblptr byte
  3079   001760  0E08               	movlw	high __smallconst
  3080   001762  6EF7               	movwf	tblptrh,c
  3081   001764                     	endif
  3082   001764                     	if	0	;tblptru may be non-zero
  3083   001764                     	endif
  3084   001764                     	if	0	;tblptru may be non-zero
  3085   001764                     	endif
  3086   001764  0008               	tblrd		*
  3087   001766  50F5               	movf	tablat,w,c
  3088   001768  0900               	iorlw	0
  3089   00176A  A4D8               	btfss	status,2,c
  3090   00176C  EFBA  F00B         	goto	u1011
  3091   001770  EFBC  F00B         	goto	u1010
  3092   001774                     u1011:
  3093   001774  EFA5  F00B         	goto	l2076
  3094   001778                     u1010:
  3095   001778  0012               	return		;funcret
  3096   00177A                     __end_of_lcd_print:
  3097                           	callstack 0
  3098                           
  3099 ;; *************** function _lcd_write *****************
  3100 ;; Defined at:
  3101 ;;		line 62 in file "lcd.c"
  3102 ;; Parameters:    Size  Location     Type
  3103 ;;  value           1    wreg     unsigned char 
  3104 ;; Auto vars:     Size  Location     Type
  3105 ;;  value           1    4[COMRAM] unsigned char 
  3106 ;; Return value:  Size  Location     Type
  3107 ;;                  1    wreg      void 
  3108 ;; Registers used:
  3109 ;;		wreg, status,2, status,0, cstack
  3110 ;; Tracked objects:
  3111 ;;		On entry : 0/0
  3112 ;;		On exit  : 0/0
  3113 ;;		Unchanged: 0/0
  3114 ;; Data sizes:     COMRAM   BANK0   BANK1   BANK2   BANK3   BANK4   BANK5   BANK6   BANK7
  3115 ;;      Params:         0       0       0       0       0       0       0       0       0
  3116 ;;      Locals:         1       0       0       0       0       0       0       0       0
  3117 ;;      Temps:          0       0       0       0       0       0       0       0       0
  3118 ;;      Totals:         1       0       0       0       0       0       0       0       0
  3119 ;;Total ram usage:        1 bytes
  3120 ;; Hardware stack levels used: 1
  3121 ;; This function calls:
  3122 ;;		_lcd_write4bits
  3123 ;; This function is called by:
  3124 ;;		_lcd_print
  3125 ;;		_lcd_printNum
  3126 ;;		_lcd_createChar
  3127 ;;		_lcd_scrollText
  3128 ;; This function uses a non-reentrant model
  3129 ;;
  3130                           
  3131                           	psect	text15
  3132   001842                     __ptext15:
  3133                           	callstack 0
  3134   001842                     _lcd_write:
  3135                           	callstack 25
  3136                           
  3137                           ;incstack = 0
  3138                           ;lcd_write@value stored from wreg
  3139   001842  6E36               	movwf	lcd_write@value^0,c
  3140   001844                     
  3141                           ;lcd.c: 63:     PORTDbits.RD0 = 1;
  3142   001844  8083               	bsf	131,0,c	;volatile
  3143                           
  3144                           ;lcd.c: 64:     PORTDbits.RD1 = 0;
  3145   001846  9283               	bcf	131,1,c	;volatile
  3146   001848                     
  3147                           ;lcd.c: 67:     lcd_write4bits(value >> 4);
  3148   001848  3836               	swapf	lcd_write@value^0,w,c
  3149   00184A  0B0F               	andlw	15
  3150   00184C  ECCF  F009         	call	_lcd_write4bits
  3151                           
  3152                           ;lcd.c: 69:     lcd_write4bits(value & 0x0F);
  3153   001850  5036               	movf	lcd_write@value^0,w,c
  3154   001852  0B0F               	andlw	15
  3155   001854  ECCF  F009         	call	_lcd_write4bits
  3156   001858                     
  3157                           ;lcd.c: 71:     lcd_config.currCol++;
  3158   001858  2A07               	incf	(_lcd_config+6)^0,f,c
  3159   00185A  0012               	return		;funcret
  3160   00185C                     __end_of_lcd_write:
  3161                           	callstack 0
  3162                           
  3163 ;; *************** function ___awdiv *****************
  3164 ;; Defined at:
  3165 ;;		line 7 in file "C:\Program Files\Microchip\xc8\v3.10\pic\sources\c99\common\awdiv.c"
  3166 ;; Parameters:    Size  Location     Type
  3167 ;;  dividend        2    0[COMRAM] int 
  3168 ;;  divisor         2    2[COMRAM] int 
  3169 ;; Auto vars:     Size  Location     Type
  3170 ;;  quotient        2    6[COMRAM] int 
  3171 ;;  sign            1    5[COMRAM] unsigned char 
  3172 ;;  counter         1    4[COMRAM] unsigned char 
  3173 ;; Return value:  Size  Location     Type
  3174 ;;                  2    0[COMRAM] int 
  3175 ;; Registers used:
  3176 ;;		wreg, status,2, status,0
  3177 ;; Tracked objects:
  3178 ;;		On entry : 0/0
  3179 ;;		On exit  : 0/0
  3180 ;;		Unchanged: 0/0
  3181 ;; Data sizes:     COMRAM   BANK0   BANK1   BANK2   BANK3   BANK4   BANK5   BANK6   BANK7
  3182 ;;      Params:         4       0       0       0       0       0       0       0       0
  3183 ;;      Locals:         4       0       0       0       0       0       0       0       0
  3184 ;;      Temps:          0       0       0       0       0       0       0       0       0
  3185 ;;      Totals:         8       0       0       0       0       0       0       0       0
  3186 ;;Total ram usage:        8 bytes
  3187 ;; Hardware stack levels used: 1
  3188 ;; This function calls:
  3189 ;;		Nothing
  3190 ;; This function is called by:
  3191 ;;		_lcd_printCenter
  3192 ;; This function uses a non-reentrant model
  3193 ;;
  3194                           
  3195                           	psect	text16
  3196   0010D4                     __ptext16:
  3197                           	callstack 0
  3198   0010D4                     ___awdiv:
  3199                           	callstack 26
  3200   0010D4  6A37               	clrf	___awdiv@sign^0,c
  3201   0010D6  BE35               	btfsc	(___awdiv@divisor+1)^0,7,c
  3202   0010D8  EF72  F008         	goto	u1150
  3203   0010DC  EF70  F008         	goto	u1151
  3204   0010E0                     u1151:
  3205   0010E0  EF78  F008         	goto	l2180
  3206   0010E4                     u1150:
  3207   0010E4  6C34               	negf	___awdiv@divisor^0,c
  3208   0010E6  1E35               	comf	(___awdiv@divisor+1)^0,f,c
  3209   0010E8  B0D8               	btfsc	status,0,c
  3210   0010EA  2A35               	incf	(___awdiv@divisor+1)^0,f,c
  3211   0010EC  0E01               	movlw	1
  3212   0010EE  6E37               	movwf	___awdiv@sign^0,c
  3213   0010F0                     l2180:
  3214   0010F0  BE33               	btfsc	(___awdiv@dividend+1)^0,7,c
  3215   0010F2  EF7F  F008         	goto	u1160
  3216   0010F6  EF7D  F008         	goto	u1161
  3217   0010FA                     u1161:
  3218   0010FA  EF85  F008         	goto	l2186
  3219   0010FE                     u1160:
  3220   0010FE  6C32               	negf	___awdiv@dividend^0,c
  3221   001100  1E33               	comf	(___awdiv@dividend+1)^0,f,c
  3222   001102  B0D8               	btfsc	status,0,c
  3223   001104  2A33               	incf	(___awdiv@dividend+1)^0,f,c
  3224   001106  0E01               	movlw	1
  3225   001108  1A37               	xorwf	___awdiv@sign^0,f,c
  3226   00110A                     l2186:
  3227   00110A  6A39               	clrf	(___awdiv@quotient+1)^0,c
  3228   00110C  0E00               	movlw	0
  3229   00110E  6E38               	movwf	___awdiv@quotient^0,c
  3230   001110  5034               	movf	___awdiv@divisor^0,w,c
  3231   001112  1035               	iorwf	(___awdiv@divisor+1)^0,w,c
  3232   001114  B4D8               	btfsc	status,2,c
  3233   001116  EF8F  F008         	goto	u1171
  3234   00111A  EF91  F008         	goto	u1170
  3235   00111E                     u1171:
  3236   00111E  EFB9  F008         	goto	l2208
  3237   001122                     u1170:
  3238   001122  0E01               	movlw	1
  3239   001124  6E36               	movwf	___awdiv@counter^0,c
  3240   001126  EF99  F008         	goto	l2194
  3241   00112A                     l2192:
  3242   00112A  90D8               	bcf	status,0,c
  3243   00112C  3634               	rlcf	___awdiv@divisor^0,f,c
  3244   00112E  3635               	rlcf	(___awdiv@divisor+1)^0,f,c
  3245   001130  2A36               	incf	___awdiv@counter^0,f,c
  3246   001132                     l2194:
  3247   001132  AE35               	btfss	(___awdiv@divisor+1)^0,7,c
  3248   001134  EF9E  F008         	goto	u1181
  3249   001138  EFA0  F008         	goto	u1180
  3250   00113C                     u1181:
  3251   00113C  EF95  F008         	goto	l2192
  3252   001140                     u1180:
  3253   001140                     l2196:
  3254   001140  90D8               	bcf	status,0,c
  3255   001142  3638               	rlcf	___awdiv@quotient^0,f,c
  3256   001144  3639               	rlcf	(___awdiv@quotient+1)^0,f,c
  3257   001146  5034               	movf	___awdiv@divisor^0,w,c
  3258   001148  5C32               	subwf	___awdiv@dividend^0,w,c
  3259   00114A  5035               	movf	(___awdiv@divisor+1)^0,w,c
  3260   00114C  5833               	subwfb	(___awdiv@dividend+1)^0,w,c
  3261   00114E  A0D8               	btfss	status,0,c
  3262   001150  EFAC  F008         	goto	u1191
  3263   001154  EFAE  F008         	goto	u1190
  3264   001158                     u1191:
  3265   001158  EFB3  F008         	goto	l2204
  3266   00115C                     u1190:
  3267   00115C  5034               	movf	___awdiv@divisor^0,w,c
  3268   00115E  5E32               	subwf	___awdiv@dividend^0,f,c
  3269   001160  5035               	movf	(___awdiv@divisor+1)^0,w,c
  3270   001162  5A33               	subwfb	(___awdiv@dividend+1)^0,f,c
  3271   001164  8038               	bsf	___awdiv@quotient^0,0,c
  3272   001166                     l2204:
  3273   001166  90D8               	bcf	status,0,c
  3274   001168  3235               	rrcf	(___awdiv@divisor+1)^0,f,c
  3275   00116A  3234               	rrcf	___awdiv@divisor^0,f,c
  3276   00116C  2E36               	decfsz	___awdiv@counter^0,f,c
  3277   00116E  EFA0  F008         	goto	l2196
  3278   001172                     l2208:
  3279   001172  5037               	movf	___awdiv@sign^0,w,c
  3280   001174  B4D8               	btfsc	status,2,c
  3281   001176  EFBF  F008         	goto	u1201
  3282   00117A  EFC1  F008         	goto	u1200
  3283   00117E                     u1201:
  3284   00117E  EFC5  F008         	goto	l2212
  3285   001182                     u1200:
  3286   001182  6C38               	negf	___awdiv@quotient^0,c
  3287   001184  1E39               	comf	(___awdiv@quotient+1)^0,f,c
  3288   001186  B0D8               	btfsc	status,0,c
  3289   001188  2A39               	incf	(___awdiv@quotient+1)^0,f,c
  3290   00118A                     l2212:
  3291   00118A  C038  F032         	movff	___awdiv@quotient,?___awdiv
  3292   00118E  C039  F033         	movff	___awdiv@quotient+1,?___awdiv+1
  3293   001192  0012               	return		;funcret
  3294   001194                     __end_of___awdiv:
  3295                           	callstack 0
  3296                           
  3297 ;; *************** function _lcd_clear *****************
  3298 ;; Defined at:
  3299 ;;		line 136 in file "lcd.c"
  3300 ;; Parameters:    Size  Location     Type
  3301 ;;		None
  3302 ;; Auto vars:     Size  Location     Type
  3303 ;;		None
  3304 ;; Return value:  Size  Location     Type
  3305 ;;                  1    wreg      void 
  3306 ;; Registers used:
  3307 ;;		wreg, status,2, status,0, cstack
  3308 ;; Tracked objects:
  3309 ;;		On entry : 0/0
  3310 ;;		On exit  : 0/0
  3311 ;;		Unchanged: 0/0
  3312 ;; Data sizes:     COMRAM   BANK0   BANK1   BANK2   BANK3   BANK4   BANK5   BANK6   BANK7
  3313 ;;      Params:         0       0       0       0       0       0       0       0       0
  3314 ;;      Locals:         0       0       0       0       0       0       0       0       0
  3315 ;;      Temps:          0       0       0       0       0       0       0       0       0
  3316 ;;      Totals:         0       0       0       0       0       0       0       0       0
  3317 ;;Total ram usage:        0 bytes
  3318 ;; Hardware stack levels used: 1
  3319 ;; This function calls:
  3320 ;;		_lcd_command
  3321 ;;		_lcd_delay_ms
  3322 ;; This function is called by:
  3323 ;;		_lcd_begin
  3324 ;;		_idle
  3325 ;;		_emergency_stop_sequence
  3326 ;;		_subir
  3327 ;;		_bajar
  3328 ;;		_main
  3329 ;; This function uses a non-reentrant model
  3330 ;;
  3331                           
  3332                           	psect	text17
  3333   00185C                     __ptext17:
  3334                           	callstack 0
  3335   00185C                     _lcd_clear:
  3336                           	callstack 27
  3337   00185C                     
  3338                           ;lcd.c: 137:     lcd_command(0x01);
  3339   00185C  0E01               	movlw	1
  3340   00185E  EC33  F00B         	call	_lcd_command
  3341   001862                     
  3342                           ;lcd.c: 138:     lcd_config.currLine = 0;
  3343   001862  6A06               	clrf	(_lcd_config+5)^0,c
  3344   001864                     
  3345                           ;lcd.c: 139:     lcd_config.currCol = 0;
  3346   001864  6A07               	clrf	(_lcd_config+6)^0,c
  3347                           
  3348                           ;lcd.c: 140:     lcd_delay_ms(2);
  3349   001866  6A33               	clrf	(lcd_delay_ms@ms+1)^0,c
  3350   001868  0E02               	movlw	2
  3351   00186A  6E32               	movwf	lcd_delay_ms@ms^0,c
  3352   00186C  ECD7  F00B         	call	_lcd_delay_ms	;wreg free
  3353   001870  0012               	return		;funcret
  3354   001872                     __end_of_lcd_clear:
  3355                           	callstack 0
  3356                           
  3357 ;; *************** function _lcd_command *****************
  3358 ;; Defined at:
  3359 ;;		line 46 in file "lcd.c"
  3360 ;; Parameters:    Size  Location     Type
  3361 ;;  cmd             1    wreg     unsigned char 
  3362 ;; Auto vars:     Size  Location     Type
  3363 ;;  cmd             1    4[COMRAM] unsigned char 
  3364 ;; Return value:  Size  Location     Type
  3365 ;;                  1    wreg      void 
  3366 ;; Registers used:
  3367 ;;		wreg, status,2, status,0, cstack
  3368 ;; Tracked objects:
  3369 ;;		On entry : 0/0
  3370 ;;		On exit  : 0/0
  3371 ;;		Unchanged: 0/0
  3372 ;; Data sizes:     COMRAM   BANK0   BANK1   BANK2   BANK3   BANK4   BANK5   BANK6   BANK7
  3373 ;;      Params:         0       0       0       0       0       0       0       0       0
  3374 ;;      Locals:         1       0       0       0       0       0       0       0       0
  3375 ;;      Temps:          0       0       0       0       0       0       0       0       0
  3376 ;;      Totals:         1       0       0       0       0       0       0       0       0
  3377 ;;Total ram usage:        1 bytes
  3378 ;; Hardware stack levels used: 1
  3379 ;; This function calls:
  3380 ;;		_lcd_delay_ms
  3381 ;;		_lcd_write4bits
  3382 ;; This function is called by:
  3383 ;;		_lcd_begin
  3384 ;;		_lcd_clear
  3385 ;;		_lcd_setCursor
  3386 ;;		_lcd_display
  3387 ;;		_lcd_home
  3388 ;;		_lcd_noDisplay
  3389 ;;		_lcd_noCursor
  3390 ;;		_lcd_cursor
  3391 ;;		_lcd_noBlink
  3392 ;;		_lcd_blink
  3393 ;;		_lcd_scrollDisplayLeft
  3394 ;;		_lcd_scrollDisplayRight
  3395 ;;		_lcd_leftToRight
  3396 ;;		_lcd_rightToLeft
  3397 ;;		_lcd_autoscroll
  3398 ;;		_lcd_noAutoscroll
  3399 ;;		_lcd_createChar
  3400 ;; This function uses a non-reentrant model
  3401 ;;
  3402                           
  3403                           	psect	text18
  3404   001666                     __ptext18:
  3405                           	callstack 0
  3406   001666                     _lcd_command:
  3407                           	callstack 25
  3408                           
  3409                           ;incstack = 0
  3410                           ;lcd_command@cmd stored from wreg
  3411   001666  6E36               	movwf	lcd_command@cmd^0,c
  3412   001668                     
  3413                           ;lcd.c: 47:     PORTDbits.RD0 = 0;
  3414   001668  9083               	bcf	131,0,c	;volatile
  3415                           
  3416                           ;lcd.c: 48:     PORTDbits.RD1 = 0;
  3417   00166A  9283               	bcf	131,1,c	;volatile
  3418   00166C                     
  3419                           ;lcd.c: 51:     lcd_write4bits(cmd >> 4);
  3420   00166C  3836               	swapf	lcd_command@cmd^0,w,c
  3421   00166E  0B0F               	andlw	15
  3422   001670  ECCF  F009         	call	_lcd_write4bits
  3423                           
  3424                           ;lcd.c: 53:     lcd_write4bits(cmd & 0x0F);
  3425   001674  5036               	movf	lcd_command@cmd^0,w,c
  3426   001676  0B0F               	andlw	15
  3427   001678  ECCF  F009         	call	_lcd_write4bits
  3428   00167C                     
  3429                           ;lcd.c: 56:     if(cmd == 0x01 || cmd == 0x02) {
  3430   00167C  0436               	decf	lcd_command@cmd^0,w,c
  3431   00167E  B4D8               	btfsc	status,2,c
  3432   001680  EF44  F00B         	goto	u981
  3433   001684  EF46  F00B         	goto	u980
  3434   001688                     u981:
  3435   001688  EF4F  F00B         	goto	l2056
  3436   00168C                     u980:
  3437   00168C  0E02               	movlw	2
  3438   00168E  1836               	xorwf	lcd_command@cmd^0,w,c
  3439   001690  A4D8               	btfss	status,2,c
  3440   001692  EF4D  F00B         	goto	u991
  3441   001696  EF4F  F00B         	goto	u990
  3442   00169A                     u991:
  3443   00169A  EF54  F00B         	goto	l157
  3444   00169E                     u990:
  3445   00169E                     l2056:
  3446                           
  3447                           ;lcd.c: 57:         lcd_delay_ms(2);
  3448   00169E  6A33               	clrf	(lcd_delay_ms@ms+1)^0,c
  3449   0016A0  0E02               	movlw	2
  3450   0016A2  6E32               	movwf	lcd_delay_ms@ms^0,c
  3451   0016A4  ECD7  F00B         	call	_lcd_delay_ms	;wreg free
  3452   0016A8                     l157:
  3453   0016A8  0012               	return		;funcret
  3454   0016AA                     __end_of_lcd_command:
  3455                           	callstack 0
  3456                           
  3457 ;; *************** function _lcd_write4bits *****************
  3458 ;; Defined at:
  3459 ;;		line 37 in file "lcd.c"
  3460 ;; Parameters:    Size  Location     Type
  3461 ;;  value           1    wreg     unsigned char 
  3462 ;; Auto vars:     Size  Location     Type
  3463 ;;  value           1    3[COMRAM] unsigned char 
  3464 ;; Return value:  Size  Location     Type
  3465 ;;                  1    wreg      void 
  3466 ;; Registers used:
  3467 ;;		wreg, status,2, status,0, cstack
  3468 ;; Tracked objects:
  3469 ;;		On entry : 0/0
  3470 ;;		On exit  : 0/0
  3471 ;;		Unchanged: 0/0
  3472 ;; Data sizes:     COMRAM   BANK0   BANK1   BANK2   BANK3   BANK4   BANK5   BANK6   BANK7
  3473 ;;      Params:         0       0       0       0       0       0       0       0       0
  3474 ;;      Locals:         1       0       0       0       0       0       0       0       0
  3475 ;;      Temps:          1       0       0       0       0       0       0       0       0
  3476 ;;      Totals:         2       0       0       0       0       0       0       0       0
  3477 ;;Total ram usage:        2 bytes
  3478 ;; Hardware stack levels used: 1
  3479 ;; This function calls:
  3480 ;;		_lcd_pulseEnable
  3481 ;; This function is called by:
  3482 ;;		_lcd_command
  3483 ;;		_lcd_write
  3484 ;;		_lcd_begin
  3485 ;; This function uses a non-reentrant model
  3486 ;;
  3487                           
  3488                           	psect	text19
  3489   00139E                     __ptext19:
  3490                           	callstack 0
  3491   00139E                     _lcd_write4bits:
  3492                           	callstack 24
  3493                           
  3494                           ;incstack = 0
  3495                           ;lcd_write4bits@value stored from wreg
  3496   00139E  6E35               	movwf	lcd_write4bits@value^0,c
  3497   0013A0                     
  3498                           ;lcd.c: 38:     PORTDbits.RD4 = (value >> 0) & 0x01;
  3499   0013A0  C035  F034         	movff	lcd_write4bits@value,??_lcd_write4bits
  3500   0013A4  0E01               	movlw	1
  3501   0013A6  1634               	andwf	??_lcd_write4bits^0,f,c
  3502   0013A8  3A34               	swapf	??_lcd_write4bits^0,f,c
  3503   0013AA  5083               	movf	131,w,c	;volatile
  3504   0013AC  1834               	xorwf	??_lcd_write4bits^0,w,c
  3505   0013AE  0BEF               	andlw	-17
  3506   0013B0  1834               	xorwf	??_lcd_write4bits^0,w,c
  3507   0013B2  6E83               	movwf	131,c	;volatile
  3508                           
  3509                           ;lcd.c: 39:     PORTDbits.RD5 = (value >> 1) & 0x01;
  3510   0013B4  C035  F034         	movff	lcd_write4bits@value,??_lcd_write4bits
  3511   0013B8  90D8               	bcf	status,0,c
  3512   0013BA  3234               	rrcf	??_lcd_write4bits^0,f,c
  3513   0013BC  0E01               	movlw	1
  3514   0013BE  1634               	andwf	??_lcd_write4bits^0,f,c
  3515   0013C0  3A34               	swapf	??_lcd_write4bits^0,f,c
  3516   0013C2  4634               	rlncf	??_lcd_write4bits^0,f,c
  3517   0013C4  5083               	movf	131,w,c	;volatile
  3518   0013C6  1834               	xorwf	??_lcd_write4bits^0,w,c
  3519   0013C8  0BDF               	andlw	-33
  3520   0013CA  1834               	xorwf	??_lcd_write4bits^0,w,c
  3521   0013CC  6E83               	movwf	131,c	;volatile
  3522                           
  3523                           ;lcd.c: 40:     PORTDbits.RD6 = (value >> 2) & 0x01;
  3524   0013CE  C035  F034         	movff	lcd_write4bits@value,??_lcd_write4bits
  3525   0013D2  90D8               	bcf	status,0,c
  3526   0013D4  3234               	rrcf	??_lcd_write4bits^0,f,c
  3527   0013D6  90D8               	bcf	status,0,c
  3528   0013D8  3234               	rrcf	??_lcd_write4bits^0,f,c
  3529   0013DA  0E01               	movlw	1
  3530   0013DC  1634               	andwf	??_lcd_write4bits^0,f,c
  3531   0013DE  3A34               	swapf	??_lcd_write4bits^0,f,c
  3532   0013E0  4634               	rlncf	??_lcd_write4bits^0,f,c
  3533   0013E2  4634               	rlncf	??_lcd_write4bits^0,f,c
  3534   0013E4  5083               	movf	131,w,c	;volatile
  3535   0013E6  1834               	xorwf	??_lcd_write4bits^0,w,c
  3536   0013E8  0BBF               	andlw	-65
  3537   0013EA  1834               	xorwf	??_lcd_write4bits^0,w,c
  3538   0013EC  6E83               	movwf	131,c	;volatile
  3539                           
  3540                           ;lcd.c: 41:     PORTDbits.RD7 = (value >> 3) & 0x01;
  3541   0013EE  C035  F034         	movff	lcd_write4bits@value,??_lcd_write4bits
  3542   0013F2  90D8               	bcf	status,0,c
  3543   0013F4  3234               	rrcf	??_lcd_write4bits^0,f,c
  3544   0013F6  90D8               	bcf	status,0,c
  3545   0013F8  3234               	rrcf	??_lcd_write4bits^0,f,c
  3546   0013FA  90D8               	bcf	status,0,c
  3547   0013FC  3234               	rrcf	??_lcd_write4bits^0,f,c
  3548   0013FE  0E01               	movlw	1
  3549   001400  1634               	andwf	??_lcd_write4bits^0,f,c
  3550   001402  3234               	rrcf	??_lcd_write4bits^0,f,c
  3551   001404  3234               	rrcf	??_lcd_write4bits^0,f,c
  3552   001406  5083               	movf	131,w,c	;volatile
  3553   001408  1834               	xorwf	??_lcd_write4bits^0,w,c
  3554   00140A  0B7F               	andlw	-129
  3555   00140C  1834               	xorwf	??_lcd_write4bits^0,w,c
  3556   00140E  6E83               	movwf	131,c	;volatile
  3557   001410                     
  3558                           ;lcd.c: 42:     lcd_pulseEnable();
  3559   001410  ECEE  F00B         	call	_lcd_pulseEnable	;wreg free
  3560   001414  0012               	return		;funcret
  3561   001416                     __end_of_lcd_write4bits:
  3562                           	callstack 0
  3563                           
  3564 ;; *************** function _lcd_pulseEnable *****************
  3565 ;; Defined at:
  3566 ;;		line 27 in file "lcd.c"
  3567 ;; Parameters:    Size  Location     Type
  3568 ;;		None
  3569 ;; Auto vars:     Size  Location     Type
  3570 ;;		None
  3571 ;; Return value:  Size  Location     Type
  3572 ;;                  1    wreg      void 
  3573 ;; Registers used:
  3574 ;;		wreg, status,2, status,0, cstack
  3575 ;; Tracked objects:
  3576 ;;		On entry : 0/0
  3577 ;;		On exit  : 0/0
  3578 ;;		Unchanged: 0/0
  3579 ;; Data sizes:     COMRAM   BANK0   BANK1   BANK2   BANK3   BANK4   BANK5   BANK6   BANK7
  3580 ;;      Params:         0       0       0       0       0       0       0       0       0
  3581 ;;      Locals:         0       0       0       0       0       0       0       0       0
  3582 ;;      Temps:          0       0       0       0       0       0       0       0       0
  3583 ;;      Totals:         0       0       0       0       0       0       0       0       0
  3584 ;;Total ram usage:        0 bytes
  3585 ;; Hardware stack levels used: 1
  3586 ;; Hardware stack levels required when called: 1
  3587 ;; This function calls:
  3588 ;;		_lcd_delay_us
  3589 ;; This function is called by:
  3590 ;;		_lcd_write4bits
  3591 ;; This function uses a non-reentrant model
  3592 ;;
  3593                           
  3594                           	psect	text20
  3595   0017DC                     __ptext20:
  3596                           	callstack 0
  3597   0017DC                     _lcd_pulseEnable:
  3598                           	callstack 22
  3599   0017DC                     
  3600                           ;lcd.c: 28:     PORTDbits.RD2 = 0;
  3601   0017DC  9483               	bcf	131,2,c	;volatile
  3602   0017DE                     
  3603                           ;lcd.c: 29:     lcd_delay_us(1);
  3604   0017DE  6A33               	clrf	(lcd_delay_us@us+1)^0,c
  3605   0017E0  0E01               	movlw	1
  3606   0017E2  6E32               	movwf	lcd_delay_us@us^0,c
  3607   0017E4  EC01  F00C         	call	_lcd_delay_us	;wreg free
  3608   0017E8                     
  3609                           ;lcd.c: 30:     PORTDbits.RD2 = 1;
  3610   0017E8  8483               	bsf	131,2,c	;volatile
  3611                           
  3612                           ;lcd.c: 31:     lcd_delay_us(1);
  3613   0017EA  6A33               	clrf	(lcd_delay_us@us+1)^0,c
  3614   0017EC  0E01               	movlw	1
  3615   0017EE  6E32               	movwf	lcd_delay_us@us^0,c
  3616   0017F0  EC01  F00C         	call	_lcd_delay_us	;wreg free
  3617   0017F4                     
  3618                           ;lcd.c: 32:     PORTDbits.RD2 = 0;
  3619   0017F4  9483               	bcf	131,2,c	;volatile
  3620                           
  3621                           ;lcd.c: 33:     lcd_delay_us(100);
  3622   0017F6  6A33               	clrf	(lcd_delay_us@us+1)^0,c
  3623   0017F8  0E64               	movlw	100
  3624   0017FA  6E32               	movwf	lcd_delay_us@us^0,c
  3625   0017FC  EC01  F00C         	call	_lcd_delay_us	;wreg free
  3626   001800  0012               	return		;funcret
  3627   001802                     __end_of_lcd_pulseEnable:
  3628                           	callstack 0
  3629                           
  3630 ;; *************** function _lcd_delay_us *****************
  3631 ;; Defined at:
  3632 ;;		line 14 in file "lcd.c"
  3633 ;; Parameters:    Size  Location     Type
  3634 ;;  us              2    0[COMRAM] unsigned short 
  3635 ;; Auto vars:     Size  Location     Type
  3636 ;;		None
  3637 ;; Return value:  Size  Location     Type
  3638 ;;                  1    wreg      void 
  3639 ;; Registers used:
  3640 ;;		wreg, status,2, status,0
  3641 ;; Tracked objects:
  3642 ;;		On entry : 0/0
  3643 ;;		On exit  : 0/0
  3644 ;;		Unchanged: 0/0
  3645 ;; Data sizes:     COMRAM   BANK0   BANK1   BANK2   BANK3   BANK4   BANK5   BANK6   BANK7
  3646 ;;      Params:         2       0       0       0       0       0       0       0       0
  3647 ;;      Locals:         0       0       0       0       0       0       0       0       0
  3648 ;;      Temps:          0       0       0       0       0       0       0       0       0
  3649 ;;      Totals:         2       0       0       0       0       0       0       0       0
  3650 ;;Total ram usage:        2 bytes
  3651 ;; Hardware stack levels used: 1
  3652 ;; This function calls:
  3653 ;;		Nothing
  3654 ;; This function is called by:
  3655 ;;		_lcd_pulseEnable
  3656 ;;		_lcd_begin
  3657 ;; This function uses a non-reentrant model
  3658 ;;
  3659                           
  3660                           	psect	text21
  3661   001802                     __ptext21:
  3662                           	callstack 0
  3663   001802                     _lcd_delay_us:
  3664                           	callstack 22
  3665   001802                     
  3666                           ;lcd.c: 15:     while(us--) {
  3667   001802  EF04  F00C         	goto	l2028
  3668   001806                     l137:
  3669                           
  3670                           ;lcd.c: 16:         _delay((unsigned long)((1)*(8000000/4000000.0)));
  3671   001806  D000               	nop2		;2 cycle nop
  3672   001808                     l2028:
  3673                           
  3674                           ;lcd.c: 15:     while(us--) {
  3675   001808  0632               	decf	lcd_delay_us@us^0,f,c
  3676   00180A  A0D8               	btfss	status,0,c
  3677   00180C  0633               	decf	(lcd_delay_us@us+1)^0,f,c
  3678   00180E  2832               	incf	lcd_delay_us@us^0,w,c
  3679   001810  E106               	bnz	u961
  3680   001812  2833               	incf	(lcd_delay_us@us+1)^0,w,c
  3681   001814  A4D8               	btfss	status,2,c
  3682   001816  EF0F  F00C         	goto	u961
  3683   00181A  EF11  F00C         	goto	u960
  3684   00181E                     u961:
  3685   00181E  EF03  F00C         	goto	l137
  3686   001822                     u960:
  3687   001822  0012               	return		;funcret
  3688   001824                     __end_of_lcd_delay_us:
  3689                           	callstack 0
  3690                           
  3691 ;; *************** function _lcd_delay_ms *****************
  3692 ;; Defined at:
  3693 ;;		line 20 in file "lcd.c"
  3694 ;; Parameters:    Size  Location     Type
  3695 ;;  ms              2    0[COMRAM] unsigned short 
  3696 ;; Auto vars:     Size  Location     Type
  3697 ;;		None
  3698 ;; Return value:  Size  Location     Type
  3699 ;;                  1    wreg      void 
  3700 ;; Registers used:
  3701 ;;		wreg, status,2, status,0
  3702 ;; Tracked objects:
  3703 ;;		On entry : 0/0
  3704 ;;		On exit  : 0/0
  3705 ;;		Unchanged: 0/0
  3706 ;; Data sizes:     COMRAM   BANK0   BANK1   BANK2   BANK3   BANK4   BANK5   BANK6   BANK7
  3707 ;;      Params:         2       0       0       0       0       0       0       0       0
  3708 ;;      Locals:         0       0       0       0       0       0       0       0       0
  3709 ;;      Temps:          1       0       0       0       0       0       0       0       0
  3710 ;;      Totals:         3       0       0       0       0       0       0       0       0
  3711 ;;Total ram usage:        3 bytes
  3712 ;; Hardware stack levels used: 1
  3713 ;; This function calls:
  3714 ;;		Nothing
  3715 ;; This function is called by:
  3716 ;;		_lcd_command
  3717 ;;		_lcd_begin
  3718 ;;		_lcd_clear
  3719 ;;		_lcd_home
  3720 ;;		_lcd_scrollText
  3721 ;; This function uses a non-reentrant model
  3722 ;;
  3723                           
  3724                           	psect	text22
  3725   0017AE                     __ptext22:
  3726                           	callstack 0
  3727   0017AE                     _lcd_delay_ms:
  3728                           	callstack 24
  3729   0017AE                     
  3730                           ;lcd.c: 21:     while(ms--) {
  3731   0017AE  EFE0  F00B         	goto	l2042
  3732   0017B2                     l2040:
  3733                           
  3734                           ;lcd.c: 22:         _delay((unsigned long)((1)*(8000000/4000.0)));
  3735   0017B2  0E03               	movlw	3
  3736   0017B4  6E34               	movwf	??_lcd_delay_ms^0,c
  3737   0017B6  0E98               	movlw	152
  3738   0017B8                     u1947:
  3739   0017B8  2EE8               	decfsz	wreg,f,c
  3740   0017BA  D7FE               	bra	u1947
  3741   0017BC  2E34               	decfsz	??_lcd_delay_ms^0,f,c
  3742   0017BE  D7FC               	bra	u1947
  3743   0017C0                     l2042:
  3744                           
  3745                           ;lcd.c: 21:     while(ms--) {
  3746   0017C0  0632               	decf	lcd_delay_ms@ms^0,f,c
  3747   0017C2  A0D8               	btfss	status,0,c
  3748   0017C4  0633               	decf	(lcd_delay_ms@ms+1)^0,f,c
  3749   0017C6  2832               	incf	lcd_delay_ms@ms^0,w,c
  3750   0017C8  E106               	bnz	u971
  3751   0017CA  2833               	incf	(lcd_delay_ms@ms+1)^0,w,c
  3752   0017CC  A4D8               	btfss	status,2,c
  3753   0017CE  EFEB  F00B         	goto	u971
  3754   0017D2  EFED  F00B         	goto	u970
  3755   0017D6                     u971:
  3756   0017D6  EFD9  F00B         	goto	l2040
  3757   0017DA                     u970:
  3758   0017DA  0012               	return		;funcret
  3759   0017DC                     __end_of_lcd_delay_ms:
  3760                           	callstack 0
  3761                           
  3762 ;; *************** function _Keypad_IsPressed *****************
  3763 ;; Defined at:
  3764 ;;		line 158 in file "Keypad.c"
  3765 ;; Parameters:    Size  Location     Type
  3766 ;;  keypad          1    0[COMRAM] PTR struct .
  3767 ;;		 -> miTeclado(35), 
  3768 ;;  key             1    1[COMRAM] unsigned char 
  3769 ;; Auto vars:     Size  Location     Type
  3770 ;;		None
  3771 ;; Return value:  Size  Location     Type
  3772 ;;                  1    wreg      _Bool 
  3773 ;; Registers used:
  3774 ;;		wreg, fsr2l, fsr2h, status,2, status,0
  3775 ;; Tracked objects:
  3776 ;;		On entry : 0/0
  3777 ;;		On exit  : 0/0
  3778 ;;		Unchanged: 0/0
  3779 ;; Data sizes:     COMRAM   BANK0   BANK1   BANK2   BANK3   BANK4   BANK5   BANK6   BANK7
  3780 ;;      Params:         2       0       0       0       0       0       0       0       0
  3781 ;;      Locals:         1       0       0       0       0       0       0       0       0
  3782 ;;      Temps:          1       0       0       0       0       0       0       0       0
  3783 ;;      Totals:         4       0       0       0       0       0       0       0       0
  3784 ;;Total ram usage:        4 bytes
  3785 ;; Hardware stack levels used: 1
  3786 ;; This function calls:
  3787 ;;		Nothing
  3788 ;; This function is called by:
  3789 ;;		_emergency_stop_sequence
  3790 ;;		_subir
  3791 ;;		_bajar
  3792 ;;		_check_emergency_during_delay
  3793 ;;		_main
  3794 ;; This function uses a non-reentrant model
  3795 ;;
  3796                           
  3797                           	psect	text23
  3798   001566                     __ptext23:
  3799                           	callstack 0
  3800   001566                     _Keypad_IsPressed:
  3801                           	callstack 28
  3802   001566                     
  3803                           ;Keypad.c: 159:     return (keypad->currentKey == key &&
  3804   001566  6A35               	clrf	_Keypad_IsPressed$156^0,c
  3805   001568  5032               	movf	Keypad_IsPressed@keypad^0,w,c
  3806   00156A  6ED9               	movwf	fsr2l,c
  3807   00156C  6ADA               	clrf	fsr2h,c
  3808   00156E  0E18               	movlw	24
  3809   001570  26D9               	addwf	fsr2l,f,c
  3810   001572  5033               	movf	Keypad_IsPressed@key^0,w,c
  3811   001574  18DE               	xorwf	postinc2,w,c
  3812   001576  A4D8               	btfss	status,2,c
  3813   001578  EFC0  F00A         	goto	u1311
  3814   00157C  EFC2  F00A         	goto	u1310
  3815   001580                     u1311:
  3816   001580  EFDF  F00A         	goto	l54
  3817   001584                     u1310:
  3818   001584  5032               	movf	Keypad_IsPressed@keypad^0,w,c
  3819   001586  6ED9               	movwf	fsr2l,c
  3820   001588  6ADA               	clrf	fsr2h,c
  3821   00158A  0E1A               	movlw	26
  3822   00158C  26D9               	addwf	fsr2l,f,c
  3823   00158E  04DE               	decf	postinc2,w,c
  3824   001590  B4D8               	btfsc	status,2,c
  3825   001592  EFCD  F00A         	goto	u1321
  3826   001596  EFCF  F00A         	goto	u1320
  3827   00159A                     u1321:
  3828   00159A  EFDD  F00A         	goto	l2314
  3829   00159E                     u1320:
  3830   00159E  5032               	movf	Keypad_IsPressed@keypad^0,w,c
  3831   0015A0  6ED9               	movwf	fsr2l,c
  3832   0015A2  6ADA               	clrf	fsr2h,c
  3833   0015A4  0E1A               	movlw	26
  3834   0015A6  26D9               	addwf	fsr2l,f,c
  3835   0015A8  0E02               	movlw	2
  3836   0015AA  18DE               	xorwf	postinc2,w,c
  3837   0015AC  A4D8               	btfss	status,2,c
  3838   0015AE  EFDB  F00A         	goto	u1331
  3839   0015B2  EFDD  F00A         	goto	u1330
  3840   0015B6                     u1331:
  3841   0015B6  EFDF  F00A         	goto	l54
  3842   0015BA                     u1330:
  3843   0015BA                     l2314:
  3844   0015BA  0E01               	movlw	1
  3845   0015BC  6E35               	movwf	_Keypad_IsPressed$156^0,c
  3846   0015BE                     l54:
  3847   0015BE  5035               	movf	_Keypad_IsPressed$156^0,w,c
  3848   0015C0  0012               	return		;funcret
  3849   0015C2                     __end_of_Keypad_IsPressed:
  3850                           	callstack 0
  3851                           
  3852 ;; *************** function _Keypad_WaitForKey *****************
  3853 ;; Defined at:
  3854 ;;		line 166 in file "Keypad.c"
  3855 ;; Parameters:    Size  Location     Type
  3856 ;;  keypad          1   25[COMRAM] PTR struct .
  3857 ;;		 -> miTeclado(35), 
  3858 ;; Auto vars:     Size  Location     Type
  3859 ;;  key             1   27[COMRAM] unsigned char 
  3860 ;; Return value:  Size  Location     Type
  3861 ;;                  1    wreg      unsigned char 
  3862 ;; Registers used:
  3863 ;;		wreg, fsr1l, fsr1h, fsr2l, fsr2h, status,2, status,0, prodl, prodh, cstack
  3864 ;; Tracked objects:
  3865 ;;		On entry : 0/0
  3866 ;;		On exit  : 0/0
  3867 ;;		Unchanged: 0/0
  3868 ;; Data sizes:     COMRAM   BANK0   BANK1   BANK2   BANK3   BANK4   BANK5   BANK6   BANK7
  3869 ;;      Params:         1       0       0       0       0       0       0       0       0
  3870 ;;      Locals:         1       0       0       0       0       0       0       0       0
  3871 ;;      Temps:          1       0       0       0       0       0       0       0       0
  3872 ;;      Totals:         3       0       0       0       0       0       0       0       0
  3873 ;;Total ram usage:        3 bytes
  3874 ;; Hardware stack levels used: 1
  3875 ;; Hardware stack levels required when called: 2
  3876 ;; This function calls:
  3877 ;;		_Keypad_GetKey
  3878 ;; This function is called by:
  3879 ;;		_main
  3880 ;;		_Keypad_GetString
  3881 ;;		_Keypad_GetNumber
  3882 ;;		_Keypad_GetPassword
  3883 ;; This function uses a non-reentrant model
  3884 ;;
  3885                           
  3886                           	psect	text24
  3887   00177A                     __ptext24:
  3888                           	callstack 0
  3889   00177A                     _Keypad_WaitForKey:
  3890                           	callstack 28
  3891   00177A                     
  3892                           ;Keypad.c: 167:     char key = '\0';
  3893   00177A  6A4D               	clrf	Keypad_WaitForKey@key^0,c
  3894                           
  3895                           ;Keypad.c: 168:     while (key == '\0') {
  3896   00177C  EFCD  F00B         	goto	l2454
  3897   001780                     l2450:
  3898                           
  3899                           ;Keypad.c: 169:         key = Keypad_GetKey(keypad);
  3900   001780  C04B  F039         	movff	Keypad_WaitForKey@keypad,Keypad_GetKey@keypad
  3901   001784  EC3A  F004         	call	_Keypad_GetKey	;wreg free
  3902   001788  6E4D               	movwf	Keypad_WaitForKey@key^0,c
  3903   00178A                     
  3904                           ;Keypad.c: 170:         _delay((unsigned long)((10)*(8000000/4000.0)));
  3905   00178A  0E1A               	movlw	26
  3906   00178C  6E4C               	movwf	??_Keypad_WaitForKey^0,c
  3907   00178E  0EF8               	movlw	248
  3908   001790                     u1957:
  3909   001790  2EE8               	decfsz	wreg,f,c
  3910   001792  D7FE               	bra	u1957
  3911   001794  2E4C               	decfsz	??_Keypad_WaitForKey^0,f,c
  3912   001796  D7FC               	bra	u1957
  3913   001798  D000               	nop2	
  3914   00179A                     l2454:
  3915                           
  3916                           ;Keypad.c: 168:     while (key == '\0') {
  3917   00179A  504D               	movf	Keypad_WaitForKey@key^0,w,c
  3918   00179C  B4D8               	btfsc	status,2,c
  3919   00179E  EFD3  F00B         	goto	u1451
  3920   0017A2  EFD5  F00B         	goto	u1450
  3921   0017A6                     u1451:
  3922   0017A6  EFC0  F00B         	goto	l2450
  3923   0017AA                     u1450:
  3924   0017AA                     
  3925                           ;Keypad.c: 172:     return key;
  3926   0017AA  504D               	movf	Keypad_WaitForKey@key^0,w,c
  3927   0017AC  0012               	return		;funcret
  3928   0017AE                     __end_of_Keypad_WaitForKey:
  3929                           	callstack 0
  3930                           
  3931 ;; *************** function _Keypad_GetKey *****************
  3932 ;; Defined at:
  3933 ;;		line 102 in file "Keypad.c"
  3934 ;; Parameters:    Size  Location     Type
  3935 ;;  keypad          1    7[COMRAM] PTR struct .
  3936 ;;		 -> miTeclado(35), 
  3937 ;; Auto vars:     Size  Location     Type
  3938 ;;  currentTime     4   20[COMRAM] unsigned long 
  3939 ;;  key             1   24[COMRAM] unsigned char 
  3940 ;; Return value:  Size  Location     Type
  3941 ;;                  1    wreg      unsigned char 
  3942 ;; Registers used:
  3943 ;;		wreg, fsr1l, fsr1h, fsr2l, fsr2h, status,2, status,0, prodl, prodh, cstack
  3944 ;; Tracked objects:
  3945 ;;		On entry : 0/0
  3946 ;;		On exit  : 0/0
  3947 ;;		Unchanged: 0/0
  3948 ;; Data sizes:     COMRAM   BANK0   BANK1   BANK2   BANK3   BANK4   BANK5   BANK6   BANK7
  3949 ;;      Params:         1       0       0       0       0       0       0       0       0
  3950 ;;      Locals:         5       0       0       0       0       0       0       0       0
  3951 ;;      Temps:         12       0       0       0       0       0       0       0       0
  3952 ;;      Totals:        18       0       0       0       0       0       0       0       0
  3953 ;;Total ram usage:       18 bytes
  3954 ;; Hardware stack levels used: 1
  3955 ;; Hardware stack levels required when called: 1
  3956 ;; This function calls:
  3957 ;;		___lwdiv
  3958 ;;		_getMillis
  3959 ;;		_scanKeys
  3960 ;; This function is called by:
  3961 ;;		_Keypad_WaitForKey
  3962 ;;		_Keypad_GetState
  3963 ;;		_Keypad_GetString
  3964 ;;		_Keypad_GetNumber
  3965 ;;		_Keypad_GetPassword
  3966 ;; This function uses a non-reentrant model
  3967 ;;
  3968                           
  3969                           	psect	text25
  3970   000874                     __ptext25:
  3971                           	callstack 0
  3972   000874                     _Keypad_GetKey:
  3973                           	callstack 28
  3974   000874                     
  3975                           ;Keypad.c: 103:     char key = scanKeys(keypad);
  3976   000874  C039  F032         	movff	Keypad_GetKey@keypad,scanKeys@keypad
  3977   000878  EC29  F009         	call	_scanKeys	;wreg free
  3978   00087C  6E4A               	movwf	Keypad_GetKey@key^0,c
  3979   00087E                     
  3980                           ;Keypad.c: 104:     uint32_t currentTime = getMillis();
  3981   00087E  EC12  F00C         	call	_getMillis	;wreg free
  3982   000882  C032  F046         	movff	?_getMillis,Keypad_GetKey@currentTime
  3983   000886  C033  F047         	movff	?_getMillis+1,Keypad_GetKey@currentTime+1
  3984   00088A  C034  F048         	movff	?_getMillis+2,Keypad_GetKey@currentTime+2
  3985   00088E  C035  F049         	movff	?_getMillis+3,Keypad_GetKey@currentTime+3
  3986                           
  3987                           ;Keypad.c: 107:     switch (keypad->state) {
  3988   000892  EF1A  F005         	goto	l2382
  3989   000896                     l2352:
  3990                           
  3991                           ;Keypad.c: 109:             if (key != '\0') {
  3992   000896  504A               	movf	Keypad_GetKey@key^0,w,c
  3993   000898  B4D8               	btfsc	status,2,c
  3994   00089A  EF51  F004         	goto	u1371
  3995   00089E  EF53  F004         	goto	u1370
  3996   0008A2                     u1371:
  3997   0008A2  EF32  F005         	goto	l2384
  3998   0008A6                     u1370:
  3999   0008A6                     
  4000                           ;Keypad.c: 110:                 keypad->currentKey = key;
  4001   0008A6  5039               	movf	Keypad_GetKey@keypad^0,w,c
  4002   0008A8  6ED9               	movwf	fsr2l,c
  4003   0008AA  6ADA               	clrf	fsr2h,c
  4004   0008AC  0E18               	movlw	24
  4005   0008AE  26D9               	addwf	fsr2l,f,c
  4006   0008B0  C04A  FFDF         	movff	Keypad_GetKey@key,indf2
  4007                           
  4008                           ;Keypad.c: 111:                 keypad->state = 1;
  4009   0008B4  5039               	movf	Keypad_GetKey@keypad^0,w,c
  4010   0008B6  6ED9               	movwf	fsr2l,c
  4011   0008B8  6ADA               	clrf	fsr2h,c
  4012   0008BA  0E1A               	movlw	26
  4013   0008BC  26D9               	addwf	fsr2l,f,c
  4014   0008BE  0E01               	movlw	1
  4015   0008C0  6EDF               	movwf	indf2,c
  4016                           
  4017                           ;Keypad.c: 112:                 keypad->pressTime = currentTime;
  4018   0008C2  5039               	movf	Keypad_GetKey@keypad^0,w,c
  4019   0008C4  6ED9               	movwf	fsr2l,c
  4020   0008C6  6ADA               	clrf	fsr2h,c
  4021   0008C8  0E1F               	movlw	31
  4022   0008CA  26D9               	addwf	fsr2l,f,c
  4023   0008CC  C046  FFDE         	movff	Keypad_GetKey@currentTime,postinc2
  4024   0008D0  C047  FFDE         	movff	Keypad_GetKey@currentTime+1,postinc2
  4025   0008D4  C048  FFDE         	movff	Keypad_GetKey@currentTime+2,postinc2
  4026   0008D8  C049  FFDE         	movff	Keypad_GetKey@currentTime+3,postinc2
  4027                           
  4028                           ;Keypad.c: 113:                 keypad->lastUpdateTime = currentTime;
  4029   0008DC  5039               	movf	Keypad_GetKey@keypad^0,w,c
  4030   0008DE  6ED9               	movwf	fsr2l,c
  4031   0008E0  6ADA               	clrf	fsr2h,c
  4032   0008E2  0E1B               	movlw	27
  4033   0008E4  26D9               	addwf	fsr2l,f,c
  4034   0008E6  C046  FFDE         	movff	Keypad_GetKey@currentTime,postinc2
  4035   0008EA  C047  FFDE         	movff	Keypad_GetKey@currentTime+1,postinc2
  4036   0008EE  C048  FFDE         	movff	Keypad_GetKey@currentTime+2,postinc2
  4037   0008F2  C049  FFDE         	movff	Keypad_GetKey@currentTime+3,postinc2
  4038   0008F6                     
  4039                           ;Keypad.c: 114:                 return key;
  4040   0008F6  504A               	movf	Keypad_GetKey@key^0,w,c
  4041   0008F8  EF33  F005         	goto	l38
  4042   0008FC                     l2360:
  4043                           
  4044                           ;Keypad.c: 119:             if (key == keypad->currentKey) {
  4045   0008FC  5039               	movf	Keypad_GetKey@keypad^0,w,c
  4046   0008FE  6ED9               	movwf	fsr2l,c
  4047   000900  6ADA               	clrf	fsr2h,c
  4048   000902  0E18               	movlw	24
  4049   000904  26D9               	addwf	fsr2l,f,c
  4050   000906  504A               	movf	Keypad_GetKey@key^0,w,c
  4051   000908  18DE               	xorwf	postinc2,w,c
  4052   00090A  A4D8               	btfss	status,2,c
  4053   00090C  EF8A  F004         	goto	u1381
  4054   000910  EF8C  F004         	goto	u1380
  4055   000914                     u1381:
  4056   000914  EFCC  F004         	goto	l2366
  4057   000918                     u1380:
  4058   000918                     
  4059                           ;Keypad.c: 121:                 if ((currentTime - keypad->pressTime) >= (holdTime / 10)
      +                          ) {
  4060   000918  C05E  F032         	movff	_holdTime,___lwdiv@dividend
  4061   00091C  C05F  F033         	movff	_holdTime+1,___lwdiv@dividend+1
  4062   000920  6A35               	clrf	(___lwdiv@divisor+1)^0,c
  4063   000922  0E0A               	movlw	10
  4064   000924  6E34               	movwf	___lwdiv@divisor^0,c
  4065   000926  EC44  F00A         	call	___lwdiv	;wreg free
  4066   00092A  5032               	movf	?___lwdiv^0,w,c
  4067   00092C  6E3A               	movwf	??_Keypad_GetKey^0,c
  4068   00092E  5033               	movf	(?___lwdiv+1)^0,w,c
  4069   000930  6E3B               	movwf	(??_Keypad_GetKey+1)^0,c
  4070   000932  6A3C               	clrf	(??_Keypad_GetKey+2)^0,c
  4071   000934  6A3D               	clrf	(??_Keypad_GetKey+3)^0,c
  4072   000936  5039               	movf	Keypad_GetKey@keypad^0,w,c
  4073   000938  6ED9               	movwf	fsr2l,c
  4074   00093A  6ADA               	clrf	fsr2h,c
  4075   00093C  0E1F               	movlw	31
  4076   00093E  26D9               	addwf	fsr2l,f,c
  4077   000940  CFDE F03E          	movff	postinc2,??_Keypad_GetKey+4
  4078   000944  CFDE F03F          	movff	postinc2,??_Keypad_GetKey+5
  4079   000948  CFDE F040          	movff	postinc2,??_Keypad_GetKey+6
  4080   00094C  CFDE F041          	movff	postinc2,??_Keypad_GetKey+7
  4081   000950  503E               	movf	(??_Keypad_GetKey+4)^0,w,c
  4082   000952  5C46               	subwf	Keypad_GetKey@currentTime^0,w,c
  4083   000954  6E42               	movwf	(??_Keypad_GetKey+8)^0,c
  4084   000956  503F               	movf	(??_Keypad_GetKey+5)^0,w,c
  4085   000958  5847               	subwfb	(Keypad_GetKey@currentTime+1)^0,w,c
  4086   00095A  6E43               	movwf	(??_Keypad_GetKey+9)^0,c
  4087   00095C  5040               	movf	(??_Keypad_GetKey+6)^0,w,c
  4088   00095E  5848               	subwfb	(Keypad_GetKey@currentTime+2)^0,w,c
  4089   000960  6E44               	movwf	(??_Keypad_GetKey+10)^0,c
  4090   000962  5041               	movf	(??_Keypad_GetKey+7)^0,w,c
  4091   000964  5849               	subwfb	(Keypad_GetKey@currentTime+3)^0,w,c
  4092   000966  6E45               	movwf	(??_Keypad_GetKey+11)^0,c
  4093   000968  503A               	movf	??_Keypad_GetKey^0,w,c
  4094   00096A  5C42               	subwf	(??_Keypad_GetKey+8)^0,w,c
  4095   00096C  503B               	movf	(??_Keypad_GetKey+1)^0,w,c
  4096   00096E  5843               	subwfb	(??_Keypad_GetKey+9)^0,w,c
  4097   000970  503C               	movf	(??_Keypad_GetKey+2)^0,w,c
  4098   000972  5844               	subwfb	(??_Keypad_GetKey+10)^0,w,c
  4099   000974  503D               	movf	(??_Keypad_GetKey+3)^0,w,c
  4100   000976  5845               	subwfb	(??_Keypad_GetKey+11)^0,w,c
  4101   000978  A0D8               	btfss	status,0,c
  4102   00097A  EFC1  F004         	goto	u1391
  4103   00097E  EFC3  F004         	goto	u1390
  4104   000982                     u1391:
  4105   000982  EF32  F005         	goto	l2384
  4106   000986                     u1390:
  4107   000986                     
  4108                           ;Keypad.c: 122:                     keypad->state = 2;
  4109   000986  5039               	movf	Keypad_GetKey@keypad^0,w,c
  4110   000988  6ED9               	movwf	fsr2l,c
  4111   00098A  6ADA               	clrf	fsr2h,c
  4112   00098C  0E1A               	movlw	26
  4113   00098E  26D9               	addwf	fsr2l,f,c
  4114   000990  0E02               	movlw	2
  4115   000992  6EDF               	movwf	indf2,c
  4116   000994  EF32  F005         	goto	l2384
  4117   000998                     l2366:
  4118   000998  504A               	movf	Keypad_GetKey@key^0,w,c
  4119   00099A  A4D8               	btfss	status,2,c
  4120   00099C  EFD2  F004         	goto	u1401
  4121   0009A0  EFD4  F004         	goto	u1400
  4122   0009A4                     u1401:
  4123   0009A4  EF32  F005         	goto	l2384
  4124   0009A8                     u1400:
  4125   0009A8                     
  4126                           ;Keypad.c: 126:                 keypad->state = 3;
  4127   0009A8  5039               	movf	Keypad_GetKey@keypad^0,w,c
  4128   0009AA  6ED9               	movwf	fsr2l,c
  4129   0009AC  6ADA               	clrf	fsr2h,c
  4130   0009AE  0E1A               	movlw	26
  4131   0009B0  26D9               	addwf	fsr2l,f,c
  4132   0009B2  0E03               	movlw	3
  4133   0009B4  6EDF               	movwf	indf2,c
  4134   0009B6                     
  4135                           ;Keypad.c: 127:                 keypad->lastKey = keypad->currentKey;
  4136   0009B6  5039               	movf	Keypad_GetKey@keypad^0,w,c
  4137   0009B8  6ED9               	movwf	fsr2l,c
  4138   0009BA  6ADA               	clrf	fsr2h,c
  4139   0009BC  0E18               	movlw	24
  4140   0009BE  26D9               	addwf	fsr2l,f,c
  4141   0009C0  5039               	movf	Keypad_GetKey@keypad^0,w,c
  4142   0009C2  6EE1               	movwf	fsr1l,c
  4143   0009C4  6AE2               	clrf	fsr1h,c
  4144   0009C6  0E19               	movlw	25
  4145   0009C8  26E1               	addwf	fsr1l,f,c
  4146   0009CA  CFDF FFE7          	movff	indf2,indf1
  4147   0009CE  EF32  F005         	goto	l2384
  4148   0009D2                     l2372:
  4149                           
  4150                           ;Keypad.c: 132:             if (key != keypad->currentKey) {
  4151   0009D2  5039               	movf	Keypad_GetKey@keypad^0,w,c
  4152   0009D4  6ED9               	movwf	fsr2l,c
  4153   0009D6  6ADA               	clrf	fsr2h,c
  4154   0009D8  0E18               	movlw	24
  4155   0009DA  26D9               	addwf	fsr2l,f,c
  4156   0009DC  504A               	movf	Keypad_GetKey@key^0,w,c
  4157   0009DE  18DE               	xorwf	postinc2,w,c
  4158   0009E0  B4D8               	btfsc	status,2,c
  4159   0009E2  EFF5  F004         	goto	u1411
  4160   0009E6  EFF7  F004         	goto	u1410
  4161   0009EA                     u1411:
  4162   0009EA  EF32  F005         	goto	l2384
  4163   0009EE                     u1410:
  4164   0009EE                     
  4165                           ;Keypad.c: 133:                 keypad->state = 3;
  4166   0009EE  5039               	movf	Keypad_GetKey@keypad^0,w,c
  4167   0009F0  6ED9               	movwf	fsr2l,c
  4168   0009F2  6ADA               	clrf	fsr2h,c
  4169   0009F4  0E1A               	movlw	26
  4170   0009F6  26D9               	addwf	fsr2l,f,c
  4171   0009F8  0E03               	movlw	3
  4172   0009FA  6EDF               	movwf	indf2,c
  4173   0009FC                     
  4174                           ;Keypad.c: 134:                 keypad->lastKey = keypad->currentKey;
  4175   0009FC  5039               	movf	Keypad_GetKey@keypad^0,w,c
  4176   0009FE  6ED9               	movwf	fsr2l,c
  4177   000A00  6ADA               	clrf	fsr2h,c
  4178   000A02  0E18               	movlw	24
  4179   000A04  26D9               	addwf	fsr2l,f,c
  4180   000A06  5039               	movf	Keypad_GetKey@keypad^0,w,c
  4181   000A08  6EE1               	movwf	fsr1l,c
  4182   000A0A  6AE2               	clrf	fsr1h,c
  4183   000A0C  0E19               	movlw	25
  4184   000A0E  26E1               	addwf	fsr1l,f,c
  4185   000A10  CFDF FFE7          	movff	indf2,indf1
  4186   000A14  EF32  F005         	goto	l2384
  4187   000A18                     l2378:
  4188                           
  4189                           ;Keypad.c: 139:             keypad->state = 0;
  4190   000A18  5039               	movf	Keypad_GetKey@keypad^0,w,c
  4191   000A1A  6ED9               	movwf	fsr2l,c
  4192   000A1C  6ADA               	clrf	fsr2h,c
  4193   000A1E  0E1A               	movlw	26
  4194   000A20  26D9               	addwf	fsr2l,f,c
  4195   000A22  6ADF               	clrf	indf2,c
  4196                           
  4197                           ;Keypad.c: 140:             keypad->currentKey = '\0';
  4198   000A24  5039               	movf	Keypad_GetKey@keypad^0,w,c
  4199   000A26  6ED9               	movwf	fsr2l,c
  4200   000A28  6ADA               	clrf	fsr2h,c
  4201   000A2A  0E18               	movlw	24
  4202   000A2C  26D9               	addwf	fsr2l,f,c
  4203   000A2E  6ADF               	clrf	indf2,c
  4204                           
  4205                           ;Keypad.c: 141:             break;
  4206   000A30  EF32  F005         	goto	l2384
  4207   000A34                     l2382:
  4208   000A34  5039               	movf	Keypad_GetKey@keypad^0,w,c
  4209   000A36  6ED9               	movwf	fsr2l,c
  4210   000A38  6ADA               	clrf	fsr2h,c
  4211   000A3A  0E1A               	movlw	26
  4212   000A3C  26D9               	addwf	fsr2l,f,c
  4213   000A3E  50DF               	movf	indf2,w,c
  4214                           
  4215                           ; Switch size 1, requested type "simple"
  4216                           ; Number of cases is 4, Range of values is 0 to 3
  4217                           ; switch strategies available:
  4218                           ; Name         Instructions Cycles
  4219                           ; simple_byte           13     7 (average)
  4220                           ;	Chosen strategy is simple_byte
  4221   000A40  0A00               	xorlw	0	; case 0
  4222   000A42  B4D8               	btfsc	status,2,c
  4223   000A44  EF4B  F004         	goto	l2352
  4224   000A48  0A01               	xorlw	1	; case 1
  4225   000A4A  B4D8               	btfsc	status,2,c
  4226   000A4C  EF7E  F004         	goto	l2360
  4227   000A50  0A03               	xorlw	3	; case 2
  4228   000A52  B4D8               	btfsc	status,2,c
  4229   000A54  EFE9  F004         	goto	l2372
  4230   000A58  0A01               	xorlw	1	; case 3
  4231   000A5A  B4D8               	btfsc	status,2,c
  4232   000A5C  EF0C  F005         	goto	l2378
  4233   000A60  EF32  F005         	goto	l2384
  4234   000A64                     l2384:
  4235                           
  4236                           ;Keypad.c: 144:     return '\0';
  4237   000A64  0E00               	movlw	0
  4238   000A66                     l38:
  4239   000A66  0012               	return		;funcret
  4240   000A68                     __end_of_Keypad_GetKey:
  4241                           	callstack 0
  4242                           
  4243 ;; *************** function _scanKeys *****************
  4244 ;; Defined at:
  4245 ;;		line 71 in file "Keypad.c"
  4246 ;; Parameters:    Size  Location     Type
  4247 ;;  keypad          1    0[COMRAM] PTR struct .
  4248 ;;		 -> miTeclado(35), 
  4249 ;; Auto vars:     Size  Location     Type
  4250 ;;  col             1    4[COMRAM] unsigned char 
  4251 ;;  row             1    3[COMRAM] unsigned char 
  4252 ;; Return value:  Size  Location     Type
  4253 ;;                  1    wreg      unsigned char 
  4254 ;; Registers used:
  4255 ;;		wreg, fsr2l, fsr2h, status,2, status,0, prodl, prodh
  4256 ;; Tracked objects:
  4257 ;;		On entry : 0/0
  4258 ;;		On exit  : 0/0
  4259 ;;		Unchanged: 0/0
  4260 ;; Data sizes:     COMRAM   BANK0   BANK1   BANK2   BANK3   BANK4   BANK5   BANK6   BANK7
  4261 ;;      Params:         1       0       0       0       0       0       0       0       0
  4262 ;;      Locals:         2       0       0       0       0       0       0       0       0
  4263 ;;      Temps:          2       0       0       0       0       0       0       0       0
  4264 ;;      Totals:         5       0       0       0       0       0       0       0       0
  4265 ;;Total ram usage:        5 bytes
  4266 ;; Hardware stack levels used: 1
  4267 ;; This function calls:
  4268 ;;		Nothing
  4269 ;; This function is called by:
  4270 ;;		_Keypad_GetKey
  4271 ;;		_Keypad_Flush
  4272 ;; This function uses a non-reentrant model
  4273 ;;
  4274                           
  4275                           	psect	text26
  4276   001252                     __ptext26:
  4277                           	callstack 0
  4278   001252                     _scanKeys:
  4279                           	callstack 28
  4280   001252                     
  4281                           ;Keypad.c: 73:     for (uint8_t row = 0; row < 4; row++) {
  4282   001252  6A35               	clrf	scanKeys@row^0,c
  4283   001254                     l2272:
  4284                           
  4285                           ;Keypad.c: 75:         PORTB |= 0x0F;
  4286   001254  0E0F               	movlw	15
  4287   001256  1281               	iorwf	129,f,c	;volatile
  4288   001258                     
  4289                           ;Keypad.c: 78:         PORTB &= ~(1 << keypad->rowPins[row]);
  4290   001258  5032               	movf	scanKeys@keypad^0,w,c
  4291   00125A  2435               	addwf	scanKeys@row^0,w,c
  4292   00125C  6ED9               	movwf	fsr2l,c
  4293   00125E  6ADA               	clrf	fsr2h,c
  4294   001260  0E10               	movlw	16
  4295   001262  26D9               	addwf	fsr2l,f,c
  4296   001264  50DF               	movf	indf2,w,c
  4297   001266  6E33               	movwf	??_scanKeys^0,c
  4298   001268  0E01               	movlw	1
  4299   00126A  6E34               	movwf	(??_scanKeys+1)^0,c
  4300   00126C  2A33               	incf	??_scanKeys^0,f,c
  4301   00126E  EF3B  F009         	goto	u1264
  4302   001272                     u1265:
  4303   001272  90D8               	bcf	status,0,c
  4304   001274  3634               	rlcf	(??_scanKeys+1)^0,f,c
  4305   001276                     u1264:
  4306   001276  2E33               	decfsz	??_scanKeys^0,f,c
  4307   001278  EF39  F009         	goto	u1265
  4308   00127C  5034               	movf	(??_scanKeys+1)^0,w,c
  4309   00127E  0AFF               	xorlw	255
  4310   001280  1681               	andwf	129,f,c	;volatile
  4311   001282                     
  4312                           ;Keypad.c: 81:         _delay((unsigned long)((10)*(8000000/4000000.0)));
  4313   001282  0E06               	movlw	6
  4314   001284                     u1967:
  4315   001284  2EE8               	decfsz	wreg,f,c
  4316   001286  D7FE               	bra	u1967
  4317   001288  D000               	nop2	
  4318   00128A                     
  4319                           ;Keypad.c: 84:         for (uint8_t col = 0; col < 4; col++) {
  4320   00128A  6A36               	clrf	scanKeys@col^0,c
  4321   00128C                     l2284:
  4322                           
  4323                           ;Keypad.c: 86:             if (!(PORTB & (1 << keypad->colPins[col]))) {
  4324   00128C  5032               	movf	scanKeys@keypad^0,w,c
  4325   00128E  2436               	addwf	scanKeys@col^0,w,c
  4326   001290  6ED9               	movwf	fsr2l,c
  4327   001292  6ADA               	clrf	fsr2h,c
  4328   001294  0E14               	movlw	20
  4329   001296  26D9               	addwf	fsr2l,f,c
  4330   001298  50DF               	movf	indf2,w,c
  4331   00129A  6E33               	movwf	??_scanKeys^0,c
  4332   00129C  0E01               	movlw	1
  4333   00129E  6E34               	movwf	(??_scanKeys+1)^0,c
  4334   0012A0  2A33               	incf	??_scanKeys^0,f,c
  4335   0012A2  EF55  F009         	goto	u1274
  4336   0012A6                     u1275:
  4337   0012A6  90D8               	bcf	status,0,c
  4338   0012A8  3634               	rlcf	(??_scanKeys+1)^0,f,c
  4339   0012AA                     u1274:
  4340   0012AA  2E33               	decfsz	??_scanKeys^0,f,c
  4341   0012AC  EF53  F009         	goto	u1275
  4342   0012B0  5034               	movf	(??_scanKeys+1)^0,w,c
  4343   0012B2  1481               	andwf	129,w,c	;volatile
  4344   0012B4  0900               	iorlw	0
  4345   0012B6  A4D8               	btfss	status,2,c
  4346   0012B8  EF60  F009         	goto	u1281
  4347   0012BC  EF62  F009         	goto	u1280
  4348   0012C0                     u1281:
  4349   0012C0  EF6E  F009         	goto	l2292
  4350   0012C4                     u1280:
  4351   0012C4                     
  4352                           ;Keypad.c: 88:                 PORTB |= 0x0F;
  4353   0012C4  0E0F               	movlw	15
  4354   0012C6  1281               	iorwf	129,f,c	;volatile
  4355   0012C8                     
  4356                           ;Keypad.c: 89:                 return keypad->keys[row][col];
  4357   0012C8  5035               	movf	scanKeys@row^0,w,c
  4358   0012CA  0D04               	mullw	4
  4359   0012CC  5032               	movf	scanKeys@keypad^0,w,c
  4360   0012CE  24F3               	addwf	243,w,c
  4361   0012D0  2436               	addwf	scanKeys@col^0,w,c
  4362   0012D2  6ED9               	movwf	fsr2l,c
  4363   0012D4  6ADA               	clrf	fsr2h,c
  4364   0012D6  50DF               	movf	indf2,w,c
  4365   0012D8  EF83  F009         	goto	l32
  4366   0012DC                     l2292:
  4367                           
  4368                           ;Keypad.c: 91:         }
  4369   0012DC  2A36               	incf	scanKeys@col^0,f,c
  4370   0012DE  0E03               	movlw	3
  4371   0012E0  6436               	cpfsgt	scanKeys@col^0,c
  4372   0012E2  EF75  F009         	goto	u1291
  4373   0012E6  EF77  F009         	goto	u1290
  4374   0012EA                     u1291:
  4375   0012EA  EF46  F009         	goto	l2284
  4376   0012EE                     u1290:
  4377   0012EE                     
  4378                           ;Keypad.c: 92:     }
  4379   0012EE  2A35               	incf	scanKeys@row^0,f,c
  4380   0012F0  0E03               	movlw	3
  4381   0012F2  6435               	cpfsgt	scanKeys@row^0,c
  4382   0012F4  EF7E  F009         	goto	u1301
  4383   0012F8  EF80  F009         	goto	u1300
  4384   0012FC                     u1301:
  4385   0012FC  EF2A  F009         	goto	l2272
  4386   001300                     u1300:
  4387   001300                     
  4388                           ;Keypad.c: 95:     PORTB |= 0x0F;
  4389   001300  0E0F               	movlw	15
  4390   001302  1281               	iorwf	129,f,c	;volatile
  4391   001304                     
  4392                           ;Keypad.c: 96:     return '\0';
  4393   001304  0E00               	movlw	0
  4394   001306                     l32:
  4395   001306  0012               	return		;funcret
  4396   001308                     __end_of_scanKeys:
  4397                           	callstack 0
  4398                           
  4399 ;; *************** function _getMillis *****************
  4400 ;; Defined at:
  4401 ;;		line 63 in file "Keypad.c"
  4402 ;; Parameters:    Size  Location     Type
  4403 ;;		None
  4404 ;; Auto vars:     Size  Location     Type
  4405 ;;		None
  4406 ;; Return value:  Size  Location     Type
  4407 ;;                  4    0[COMRAM] unsigned long 
  4408 ;; Registers used:
  4409 ;;		wreg, status,2, status,0
  4410 ;; Tracked objects:
  4411 ;;		On entry : 0/0
  4412 ;;		On exit  : 0/0
  4413 ;;		Unchanged: 0/0
  4414 ;; Data sizes:     COMRAM   BANK0   BANK1   BANK2   BANK3   BANK4   BANK5   BANK6   BANK7
  4415 ;;      Params:         4       0       0       0       0       0       0       0       0
  4416 ;;      Locals:         0       0       0       0       0       0       0       0       0
  4417 ;;      Temps:          0       0       0       0       0       0       0       0       0
  4418 ;;      Totals:         4       0       0       0       0       0       0       0       0
  4419 ;;Total ram usage:        4 bytes
  4420 ;; Hardware stack levels used: 1
  4421 ;; This function calls:
  4422 ;;		Nothing
  4423 ;; This function is called by:
  4424 ;;		_Keypad_GetKey
  4425 ;; This function uses a non-reentrant model
  4426 ;;
  4427                           
  4428                           	psect	text27
  4429   001824                     __ptext27:
  4430                           	callstack 0
  4431   001824                     _getMillis:
  4432                           	callstack 28
  4433   001824                     
  4434                           ;Keypad.c: 64:     simple_millis++;
  4435   001824  0E01               	movlw	1
  4436   001826  2608               	addwf	_simple_millis^0,f,c
  4437   001828  0E00               	movlw	0
  4438   00182A  2209               	addwfc	(_simple_millis+1)^0,f,c
  4439   00182C  220A               	addwfc	(_simple_millis+2)^0,f,c
  4440   00182E  220B               	addwfc	(_simple_millis+3)^0,f,c
  4441   001830                     
  4442                           ;Keypad.c: 65:     return simple_millis;
  4443   001830  C008  F032         	movff	_simple_millis,?_getMillis
  4444   001834  C009  F033         	movff	_simple_millis+1,?_getMillis+1
  4445   001838  C00A  F034         	movff	_simple_millis+2,?_getMillis+2
  4446   00183C  C00B  F035         	movff	_simple_millis+3,?_getMillis+3
  4447   001840  0012               	return		;funcret
  4448   001842                     __end_of_getMillis:
  4449                           	callstack 0
  4450                           
  4451 ;; *************** function ___lwdiv *****************
  4452 ;; Defined at:
  4453 ;;		line 7 in file "C:\Program Files\Microchip\xc8\v3.10\pic\sources\c99\common\lwdiv.c"
  4454 ;; Parameters:    Size  Location     Type
  4455 ;;  dividend        2    0[COMRAM] unsigned int 
  4456 ;;  divisor         2    2[COMRAM] unsigned int 
  4457 ;; Auto vars:     Size  Location     Type
  4458 ;;  quotient        2    4[COMRAM] unsigned int 
  4459 ;;  counter         1    6[COMRAM] unsigned char 
  4460 ;; Return value:  Size  Location     Type
  4461 ;;                  2    0[COMRAM] unsigned int 
  4462 ;; Registers used:
  4463 ;;		wreg, status,2, status,0
  4464 ;; Tracked objects:
  4465 ;;		On entry : 0/0
  4466 ;;		On exit  : 0/0
  4467 ;;		Unchanged: 0/0
  4468 ;; Data sizes:     COMRAM   BANK0   BANK1   BANK2   BANK3   BANK4   BANK5   BANK6   BANK7
  4469 ;;      Params:         4       0       0       0       0       0       0       0       0
  4470 ;;      Locals:         3       0       0       0       0       0       0       0       0
  4471 ;;      Temps:          0       0       0       0       0       0       0       0       0
  4472 ;;      Totals:         7       0       0       0       0       0       0       0       0
  4473 ;;Total ram usage:        7 bytes
  4474 ;; Hardware stack levels used: 1
  4475 ;; This function calls:
  4476 ;;		Nothing
  4477 ;; This function is called by:
  4478 ;;		_Keypad_GetKey
  4479 ;;		_check_emergency_during_delay
  4480 ;; This function uses a non-reentrant model
  4481 ;;
  4482                           
  4483                           	psect	text28
  4484   001488                     __ptext28:
  4485                           	callstack 0
  4486   001488                     ___lwdiv:
  4487                           	callstack 28
  4488   001488  6A37               	clrf	(___lwdiv@quotient+1)^0,c
  4489   00148A  0E00               	movlw	0
  4490   00148C  6E36               	movwf	___lwdiv@quotient^0,c
  4491   00148E  5034               	movf	___lwdiv@divisor^0,w,c
  4492   001490  1035               	iorwf	(___lwdiv@divisor+1)^0,w,c
  4493   001492  B4D8               	btfsc	status,2,c
  4494   001494  EF4E  F00A         	goto	u1341
  4495   001498  EF50  F00A         	goto	u1340
  4496   00149C                     u1341:
  4497   00149C  EF78  F00A         	goto	l954
  4498   0014A0                     u1340:
  4499   0014A0  0E01               	movlw	1
  4500   0014A2  6E38               	movwf	___lwdiv@counter^0,c
  4501   0014A4  EF58  F00A         	goto	l2334
  4502   0014A8                     l2332:
  4503   0014A8  90D8               	bcf	status,0,c
  4504   0014AA  3634               	rlcf	___lwdiv@divisor^0,f,c
  4505   0014AC  3635               	rlcf	(___lwdiv@divisor+1)^0,f,c
  4506   0014AE  2A38               	incf	___lwdiv@counter^0,f,c
  4507   0014B0                     l2334:
  4508   0014B0  AE35               	btfss	(___lwdiv@divisor+1)^0,7,c
  4509   0014B2  EF5D  F00A         	goto	u1351
  4510   0014B6  EF5F  F00A         	goto	u1350
  4511   0014BA                     u1351:
  4512   0014BA  EF54  F00A         	goto	l2332
  4513   0014BE                     u1350:
  4514   0014BE                     l2336:
  4515   0014BE  90D8               	bcf	status,0,c
  4516   0014C0  3636               	rlcf	___lwdiv@quotient^0,f,c
  4517   0014C2  3637               	rlcf	(___lwdiv@quotient+1)^0,f,c
  4518   0014C4  5034               	movf	___lwdiv@divisor^0,w,c
  4519   0014C6  5C32               	subwf	___lwdiv@dividend^0,w,c
  4520   0014C8  5035               	movf	(___lwdiv@divisor+1)^0,w,c
  4521   0014CA  5833               	subwfb	(___lwdiv@dividend+1)^0,w,c
  4522   0014CC  A0D8               	btfss	status,0,c
  4523   0014CE  EF6B  F00A         	goto	u1361
  4524   0014D2  EF6D  F00A         	goto	u1360
  4525   0014D6                     u1361:
  4526   0014D6  EF72  F00A         	goto	l2344
  4527   0014DA                     u1360:
  4528   0014DA  5034               	movf	___lwdiv@divisor^0,w,c
  4529   0014DC  5E32               	subwf	___lwdiv@dividend^0,f,c
  4530   0014DE  5035               	movf	(___lwdiv@divisor+1)^0,w,c
  4531   0014E0  5A33               	subwfb	(___lwdiv@dividend+1)^0,f,c
  4532   0014E2  8036               	bsf	___lwdiv@quotient^0,0,c
  4533   0014E4                     l2344:
  4534   0014E4  90D8               	bcf	status,0,c
  4535   0014E6  3235               	rrcf	(___lwdiv@divisor+1)^0,f,c
  4536   0014E8  3234               	rrcf	___lwdiv@divisor^0,f,c
  4537   0014EA  2E38               	decfsz	___lwdiv@counter^0,f,c
  4538   0014EC  EF5F  F00A         	goto	l2336
  4539   0014F0                     l954:
  4540   0014F0  C036  F032         	movff	___lwdiv@quotient,?___lwdiv
  4541   0014F4  C037  F033         	movff	___lwdiv@quotient+1,?___lwdiv+1
  4542   0014F8  0012               	return		;funcret
  4543   0014FA                     __end_of___lwdiv:
  4544                           	callstack 0
  4545                           
  4546 ;; *************** function _Keypad_Init *****************
  4547 ;; Defined at:
  4548 ;;		line 23 in file "Keypad.c"
  4549 ;; Parameters:    Size  Location     Type
  4550 ;;  keypad          1    0[COMRAM] PTR struct .
  4551 ;;		 -> miTeclado(35), 
  4552 ;;  keymap          1    1[COMRAM] PTR unsigned char [4]
  4553 ;;		 -> teclas(16), 
  4554 ;; Auto vars:     Size  Location     Type
  4555 ;;  j               1    3[COMRAM] unsigned char 
  4556 ;;  i               1    2[COMRAM] unsigned char 
  4557 ;; Return value:  Size  Location     Type
  4558 ;;                  1    wreg      void 
  4559 ;; Registers used:
  4560 ;;		wreg, fsr1l, fsr1h, fsr2l, fsr2h, status,2, status,0, prodl, prodh
  4561 ;; Tracked objects:
  4562 ;;		On entry : 0/0
  4563 ;;		On exit  : 0/0
  4564 ;;		Unchanged: 0/0
  4565 ;; Data sizes:     COMRAM   BANK0   BANK1   BANK2   BANK3   BANK4   BANK5   BANK6   BANK7
  4566 ;;      Params:         2       0       0       0       0       0       0       0       0
  4567 ;;      Locals:         2       0       0       0       0       0       0       0       0
  4568 ;;      Temps:          0       0       0       0       0       0       0       0       0
  4569 ;;      Totals:         4       0       0       0       0       0       0       0       0
  4570 ;;Total ram usage:        4 bytes
  4571 ;; Hardware stack levels used: 1
  4572 ;; This function calls:
  4573 ;;		Nothing
  4574 ;; This function is called by:
  4575 ;;		_main
  4576 ;; This function uses a non-reentrant model
  4577 ;;
  4578                           
  4579                           	psect	text29
  4580   000D32                     __ptext29:
  4581                           	callstack 0
  4582   000D32                     _Keypad_Init:
  4583                           	callstack 30
  4584   000D32                     
  4585                           ;Keypad.c: 25:     for (uint8_t i = 0; i < 4; i++) {
  4586   000D32  6A34               	clrf	Keypad_Init@i^0,c
  4587   000D34                     l17:
  4588                           
  4589                           ;Keypad.c: 26:         for (uint8_t j = 0; j < 4; j++) {
  4590   000D34  6A35               	clrf	Keypad_Init@j^0,c
  4591   000D36                     l2420:
  4592                           
  4593                           ;Keypad.c: 27:             keypad->keys[i][j] = keymap[i][j];
  4594   000D36  5034               	movf	Keypad_Init@i^0,w,c
  4595   000D38  0D04               	mullw	4
  4596   000D3A  5033               	movf	Keypad_Init@keymap^0,w,c
  4597   000D3C  24F3               	addwf	243,w,c
  4598   000D3E  2435               	addwf	Keypad_Init@j^0,w,c
  4599   000D40  6ED9               	movwf	fsr2l,c
  4600   000D42  6ADA               	clrf	fsr2h,c
  4601   000D44  5034               	movf	Keypad_Init@i^0,w,c
  4602   000D46  0D04               	mullw	4
  4603   000D48  5032               	movf	Keypad_Init@keypad^0,w,c
  4604   000D4A  24F3               	addwf	243,w,c
  4605   000D4C  2435               	addwf	Keypad_Init@j^0,w,c
  4606   000D4E  6EE1               	movwf	fsr1l,c
  4607   000D50  6AE2               	clrf	fsr1h,c
  4608   000D52  CFDF FFE7          	movff	indf2,indf1
  4609   000D56                     
  4610                           ;Keypad.c: 28:         }
  4611   000D56  2A35               	incf	Keypad_Init@j^0,f,c
  4612   000D58  0E03               	movlw	3
  4613   000D5A  6435               	cpfsgt	Keypad_Init@j^0,c
  4614   000D5C  EFB2  F006         	goto	u1431
  4615   000D60  EFB4  F006         	goto	u1430
  4616   000D64                     u1431:
  4617   000D64  EF9B  F006         	goto	l2420
  4618   000D68                     u1430:
  4619   000D68                     
  4620                           ;Keypad.c: 29:     }
  4621   000D68  2A34               	incf	Keypad_Init@i^0,f,c
  4622   000D6A  0E03               	movlw	3
  4623   000D6C  6434               	cpfsgt	Keypad_Init@i^0,c
  4624   000D6E  EFBB  F006         	goto	u1441
  4625   000D72  EFBD  F006         	goto	u1440
  4626   000D76                     u1441:
  4627   000D76  EF9A  F006         	goto	l17
  4628   000D7A                     u1440:
  4629   000D7A                     
  4630                           ;Keypad.c: 32:     keypad->rowPins[0] = 0;
  4631   000D7A  5032               	movf	Keypad_Init@keypad^0,w,c
  4632   000D7C  6ED9               	movwf	fsr2l,c
  4633   000D7E  6ADA               	clrf	fsr2h,c
  4634   000D80  0E10               	movlw	16
  4635   000D82  26D9               	addwf	fsr2l,f,c
  4636   000D84  6ADF               	clrf	indf2,c
  4637                           
  4638                           ;Keypad.c: 33:     keypad->rowPins[1] = 1;
  4639   000D86  5032               	movf	Keypad_Init@keypad^0,w,c
  4640   000D88  6ED9               	movwf	fsr2l,c
  4641   000D8A  6ADA               	clrf	fsr2h,c
  4642   000D8C  0E11               	movlw	17
  4643   000D8E  26D9               	addwf	fsr2l,f,c
  4644   000D90  0E01               	movlw	1
  4645   000D92  6EDF               	movwf	indf2,c
  4646                           
  4647                           ;Keypad.c: 34:     keypad->rowPins[2] = 2;
  4648   000D94  5032               	movf	Keypad_Init@keypad^0,w,c
  4649   000D96  6ED9               	movwf	fsr2l,c
  4650   000D98  6ADA               	clrf	fsr2h,c
  4651   000D9A  0E12               	movlw	18
  4652   000D9C  26D9               	addwf	fsr2l,f,c
  4653   000D9E  0E02               	movlw	2
  4654   000DA0  6EDF               	movwf	indf2,c
  4655                           
  4656                           ;Keypad.c: 35:     keypad->rowPins[3] = 3;
  4657   000DA2  5032               	movf	Keypad_Init@keypad^0,w,c
  4658   000DA4  6ED9               	movwf	fsr2l,c
  4659   000DA6  6ADA               	clrf	fsr2h,c
  4660   000DA8  0E13               	movlw	19
  4661   000DAA  26D9               	addwf	fsr2l,f,c
  4662   000DAC  0E03               	movlw	3
  4663   000DAE  6EDF               	movwf	indf2,c
  4664                           
  4665                           ;Keypad.c: 37:     keypad->colPins[0] = 4;
  4666   000DB0  5032               	movf	Keypad_Init@keypad^0,w,c
  4667   000DB2  6ED9               	movwf	fsr2l,c
  4668   000DB4  6ADA               	clrf	fsr2h,c
  4669   000DB6  0E14               	movlw	20
  4670   000DB8  26D9               	addwf	fsr2l,f,c
  4671   000DBA  0E04               	movlw	4
  4672   000DBC  6EDF               	movwf	indf2,c
  4673                           
  4674                           ;Keypad.c: 38:     keypad->colPins[1] = 5;
  4675   000DBE  5032               	movf	Keypad_Init@keypad^0,w,c
  4676   000DC0  6ED9               	movwf	fsr2l,c
  4677   000DC2  6ADA               	clrf	fsr2h,c
  4678   000DC4  0E15               	movlw	21
  4679   000DC6  26D9               	addwf	fsr2l,f,c
  4680   000DC8  0E05               	movlw	5
  4681   000DCA  6EDF               	movwf	indf2,c
  4682                           
  4683                           ;Keypad.c: 39:     keypad->colPins[2] = 6;
  4684   000DCC  5032               	movf	Keypad_Init@keypad^0,w,c
  4685   000DCE  6ED9               	movwf	fsr2l,c
  4686   000DD0  6ADA               	clrf	fsr2h,c
  4687   000DD2  0E16               	movlw	22
  4688   000DD4  26D9               	addwf	fsr2l,f,c
  4689   000DD6  0E06               	movlw	6
  4690   000DD8  6EDF               	movwf	indf2,c
  4691                           
  4692                           ;Keypad.c: 40:     keypad->colPins[3] = 7;
  4693   000DDA  5032               	movf	Keypad_Init@keypad^0,w,c
  4694   000DDC  6ED9               	movwf	fsr2l,c
  4695   000DDE  6ADA               	clrf	fsr2h,c
  4696   000DE0  0E17               	movlw	23
  4697   000DE2  26D9               	addwf	fsr2l,f,c
  4698   000DE4  0E07               	movlw	7
  4699   000DE6  6EDF               	movwf	indf2,c
  4700   000DE8                     
  4701                           ;Keypad.c: 45:     TRISB = 0xF0;
  4702   000DE8  0EF0               	movlw	240
  4703   000DEA  6E93               	movwf	147,c	;volatile
  4704   000DEC                     
  4705                           ;Keypad.c: 46:     PORTB = 0xFF;
  4706   000DEC  6881               	setf	129,c	;volatile
  4707   000DEE                     
  4708                           ;Keypad.c: 49:     INTCON2bits.RBPU = 0;
  4709   000DEE  9EF1               	bcf	241,7,c	;volatile
  4710   000DF0                     
  4711                           ;Keypad.c: 52:     keypad->currentKey = '\0';
  4712   000DF0  5032               	movf	Keypad_Init@keypad^0,w,c
  4713   000DF2  6ED9               	movwf	fsr2l,c
  4714   000DF4  6ADA               	clrf	fsr2h,c
  4715   000DF6  0E18               	movlw	24
  4716   000DF8  26D9               	addwf	fsr2l,f,c
  4717   000DFA  6ADF               	clrf	indf2,c
  4718   000DFC                     
  4719                           ;Keypad.c: 53:     keypad->lastKey = '\0';
  4720   000DFC  5032               	movf	Keypad_Init@keypad^0,w,c
  4721   000DFE  6ED9               	movwf	fsr2l,c
  4722   000E00  6ADA               	clrf	fsr2h,c
  4723   000E02  0E19               	movlw	25
  4724   000E04  26D9               	addwf	fsr2l,f,c
  4725   000E06  6ADF               	clrf	indf2,c
  4726   000E08                     
  4727                           ;Keypad.c: 54:     keypad->state = 0;
  4728   000E08  5032               	movf	Keypad_Init@keypad^0,w,c
  4729   000E0A  6ED9               	movwf	fsr2l,c
  4730   000E0C  6ADA               	clrf	fsr2h,c
  4731   000E0E  0E1A               	movlw	26
  4732   000E10  26D9               	addwf	fsr2l,f,c
  4733   000E12  6ADF               	clrf	indf2,c
  4734   000E14                     
  4735                           ;Keypad.c: 55:     keypad->lastUpdateTime = 0;
  4736   000E14  5032               	movf	Keypad_Init@keypad^0,w,c
  4737   000E16  6ED9               	movwf	fsr2l,c
  4738   000E18  6ADA               	clrf	fsr2h,c
  4739   000E1A  0E1B               	movlw	27
  4740   000E1C  26D9               	addwf	fsr2l,f,c
  4741   000E1E  6ADE               	clrf	postinc2,c
  4742   000E20  6ADE               	clrf	postinc2,c
  4743   000E22  6ADE               	clrf	postinc2,c
  4744   000E24  6ADD               	clrf	postdec2,c
  4745   000E26                     
  4746                           ;Keypad.c: 56:     keypad->pressTime = 0;
  4747   000E26  5032               	movf	Keypad_Init@keypad^0,w,c
  4748   000E28  6ED9               	movwf	fsr2l,c
  4749   000E2A  6ADA               	clrf	fsr2h,c
  4750   000E2C  0E1F               	movlw	31
  4751   000E2E  26D9               	addwf	fsr2l,f,c
  4752   000E30  6ADE               	clrf	postinc2,c
  4753   000E32  6ADE               	clrf	postinc2,c
  4754   000E34  6ADE               	clrf	postinc2,c
  4755   000E36  6ADD               	clrf	postdec2,c
  4756   000E38  0012               	return		;funcret
  4757   000E3A                     __end_of_Keypad_Init:
  4758                           	callstack 0
  4759                           
  4760                           	psect	rparam
  4761   000001                     ___rparam_used  equ	1
  4762   000000                     ___param_bank   equ	0
  4763   000000                     __Lparam        equ	__Lrparam
  4764   000000                     __Hparam        equ	__Hrparam
  4765                           
  4766                           	psect	config
  4767                           
  4768                           ;Config register CONFIG1L @ 0x300000
  4769                           ;	PLL Prescaler Selection bits
  4770                           ;	PLLDIV = 1, No prescale (4 MHz oscillator input drives PLL directly)
  4771                           ;	System Clock Postscaler Selection bits
  4772                           ;	CPUDIV = OSC1_PLL2, [Primary Oscillator Src: /1][96 MHz PLL Src: /2]
  4773                           ;	USB Clock Selection bit (used in Full-Speed USB mode only; UCFG:FSEN = 1)
  4774                           ;	USBDIV = 1, USB clock source comes directly from the primary oscillator block with no 
      +                          postscale
  4775   300000                     	org	3145728
  4776   300000  00                 	db	0
  4777                           
  4778                           ;Config register CONFIG1H @ 0x300001
  4779                           ;	Oscillator Selection bits
  4780                           ;	FOSC = INTOSCIO_EC, Internal oscillator, port function on RA6, EC used by USB (INTIO)
  4781                           ;	Fail-Safe Clock Monitor Enable bit
  4782                           ;	FCMEN = OFF, Fail-Safe Clock Monitor disabled
  4783                           ;	Internal/External Oscillator Switchover bit
  4784                           ;	IESO = OFF, Oscillator Switchover mode disabled
  4785   300001                     	org	3145729
  4786   300001  08                 	db	8
  4787                           
  4788                           ;Config register CONFIG2L @ 0x300002
  4789                           ;	Power-up Timer Enable bit
  4790                           ;	PWRT = OFF, PWRT disabled
  4791                           ;	Brown-out Reset Enable bits
  4792                           ;	BOR = OFF, Brown-out Reset disabled in hardware and software
  4793                           ;	Brown-out Reset Voltage bits
  4794                           ;	BORV = 3, Minimum setting 2.05V
  4795                           ;	USB Voltage Regulator Enable bit
  4796                           ;	VREGEN = OFF, USB voltage regulator disabled
  4797   300002                     	org	3145730
  4798   300002  19                 	db	25
  4799                           
  4800                           ;Config register CONFIG2H @ 0x300003
  4801                           ;	Watchdog Timer Enable bit
  4802                           ;	WDT = OFF, WDT disabled (control is placed on the SWDTEN bit)
  4803                           ;	Watchdog Timer Postscale Select bits
  4804                           ;	WDTPS = 32768, 1:32768
  4805   300003                     	org	3145731
  4806   300003  1E                 	db	30
  4807                           
  4808                           ; Padding undefined space
  4809   300004                     	org	3145732
  4810   300004  FF                 	db	255
  4811                           
  4812                           ;Config register CONFIG3H @ 0x300005
  4813                           ;	CCP2 MUX bit
  4814                           ;	CCP2MX = OFF, CCP2 input/output is multiplexed with RB3
  4815                           ;	PORTB A/D Enable bit
  4816                           ;	PBADEN = OFF, PORTB<4:0> pins are configured as digital I/O on Reset
  4817                           ;	Low-Power Timer 1 Oscillator Enable bit
  4818                           ;	LPT1OSC = OFF, Timer1 configured for higher power operation
  4819                           ;	MCLR Pin Enable bit
  4820                           ;	MCLRE = ON, MCLR pin enabled; RE3 input pin disabled
  4821   300005                     	org	3145733
  4822   300005  80                 	db	128
  4823                           
  4824                           ;Config register CONFIG4L @ 0x300006
  4825                           ;	Stack Full/Underflow Reset Enable bit
  4826                           ;	STVREN = OFF, Stack full/underflow will not cause Reset
  4827                           ;	Single-Supply ICSP Enable bit
  4828                           ;	LVP = OFF, Single-Supply ICSP disabled
  4829                           ;	Dedicated In-Circuit Debug/Programming Port (ICPORT) Enable bit
  4830                           ;	ICPRT = OFF, ICPORT disabled
  4831                           ;	Extended Instruction Set Enable bit
  4832                           ;	XINST = OFF, Instruction set extension and Indexed Addressing mode disabled (Legacy mo
      +                          de)
  4833                           ;	Background Debugger Enable bit
  4834                           ;	DEBUG = 0x1, unprogrammed default
  4835   300006                     	org	3145734
  4836   300006  80                 	db	128
  4837                           
  4838                           ; Padding undefined space
  4839   300007                     	org	3145735
  4840   300007  FF                 	db	255
  4841                           
  4842                           ;Config register CONFIG5L @ 0x300008
  4843                           ;	Code Protection bit
  4844                           ;	CP0 = OFF, Block 0 (000800-001FFFh) is not code-protected
  4845                           ;	Code Protection bit
  4846                           ;	CP1 = OFF, Block 1 (002000-003FFFh) is not code-protected
  4847                           ;	Code Protection bit
  4848                           ;	CP2 = OFF, Block 2 (004000-005FFFh) is not code-protected
  4849                           ;	Code Protection bit
  4850                           ;	CP3 = OFF, Block 3 (006000-007FFFh) is not code-protected
  4851   300008                     	org	3145736
  4852   300008  0F                 	db	15
  4853                           
  4854                           ;Config register CONFIG5H @ 0x300009
  4855                           ;	Boot Block Code Protection bit
  4856                           ;	CPB = OFF, Boot block (000000-0007FFh) is not code-protected
  4857                           ;	Data EEPROM Code Protection bit
  4858                           ;	CPD = OFF, Data EEPROM is not code-protected
  4859   300009                     	org	3145737
  4860   300009  C0                 	db	192
  4861                           
  4862                           ;Config register CONFIG6L @ 0x30000A
  4863                           ;	Write Protection bit
  4864                           ;	WRT0 = OFF, Block 0 (000800-001FFFh) is not write-protected
  4865                           ;	Write Protection bit
  4866                           ;	WRT1 = OFF, Block 1 (002000-003FFFh) is not write-protected
  4867                           ;	Write Protection bit
  4868                           ;	WRT2 = OFF, Block 2 (004000-005FFFh) is not write-protected
  4869                           ;	Write Protection bit
  4870                           ;	WRT3 = OFF, Block 3 (006000-007FFFh) is not write-protected
  4871   30000A                     	org	3145738
  4872   30000A  0F                 	db	15
  4873                           
  4874                           ;Config register CONFIG6H @ 0x30000B
  4875                           ;	Configuration Register Write Protection bit
  4876                           ;	WRTC = OFF, Configuration registers (300000-3000FFh) are not write-protected
  4877                           ;	Boot Block Write Protection bit
  4878                           ;	WRTB = OFF, Boot block (000000-0007FFh) is not write-protected
  4879                           ;	Data EEPROM Write Protection bit
  4880                           ;	WRTD = OFF, Data EEPROM is not write-protected
  4881   30000B                     	org	3145739
  4882   30000B  E0                 	db	224
  4883                           
  4884                           ;Config register CONFIG7L @ 0x30000C
  4885                           ;	Table Read Protection bit
  4886                           ;	EBTR0 = OFF, Block 0 (000800-001FFFh) is not protected from table reads executed in ot
      +                          her blocks
  4887                           ;	Table Read Protection bit
  4888                           ;	EBTR1 = OFF, Block 1 (002000-003FFFh) is not protected from table reads executed in ot
      +                          her blocks
  4889                           ;	Table Read Protection bit
  4890                           ;	EBTR2 = OFF, Block 2 (004000-005FFFh) is not protected from table reads executed in ot
      +                          her blocks
  4891                           ;	Table Read Protection bit
  4892                           ;	EBTR3 = OFF, Block 3 (006000-007FFFh) is not protected from table reads executed in ot
      +                          her blocks
  4893   30000C                     	org	3145740
  4894   30000C  0F                 	db	15
  4895                           
  4896                           ;Config register CONFIG7H @ 0x30000D
  4897                           ;	Boot Block Table Read Protection bit
  4898                           ;	EBTRB = OFF, Boot block (000000-0007FFh) is not protected from table reads executed in
      +                           other blocks
  4899   30000D                     	org	3145741
  4900   30000D  40                 	db	64
  4901                           tosu	equ	0xFFF
  4902                           tosh	equ	0xFFE
  4903                           tosl	equ	0xFFD
  4904                           stkptr	equ	0xFFC
  4905                           pclatu	equ	0xFFB
  4906                           pclath	equ	0xFFA
  4907                           pcl	equ	0xFF9
  4908                           tblptru	equ	0xFF8
  4909                           tblptrh	equ	0xFF7
  4910                           tblptrl	equ	0xFF6
  4911                           tablat	equ	0xFF5
  4912                           prodh	equ	0xFF4
  4913                           prodl	equ	0xFF3
  4914                           indf0	equ	0xFEF
  4915                           postinc0	equ	0xFEE
  4916                           postdec0	equ	0xFED
  4917                           preinc0	equ	0xFEC
  4918                           plusw0	equ	0xFEB
  4919                           fsr0h	equ	0xFEA
  4920                           fsr0l	equ	0xFE9
  4921                           wreg	equ	0xFE8
  4922                           indf1	equ	0xFE7
  4923                           postinc1	equ	0xFE6
  4924                           postdec1	equ	0xFE5
  4925                           preinc1	equ	0xFE4
  4926                           plusw1	equ	0xFE3
  4927                           fsr1h	equ	0xFE2
  4928                           fsr1l	equ	0xFE1
  4929                           bsr	equ	0xFE0
  4930                           indf2	equ	0xFDF
  4931                           postinc2	equ	0xFDE
  4932                           postdec2	equ	0xFDD
  4933                           preinc2	equ	0xFDC
  4934                           plusw2	equ	0xFDB
  4935                           fsr2h	equ	0xFDA
  4936                           fsr2l	equ	0xFD9
  4937                           status	equ	0xFD8

Data Sizes:
    Strings     113
    Constant    0
    Data        22
    BSS         49
    Persistent  0
    Stack       0

Auto Spaces:
    Space          Size  Autos    Used
    COMRAM           95     40      95
    BANK0           160      0      16
    BANK1           256      0       0
    BANK2           256      0       0
    BANK3           256      0       0
    BANK4           256      0       0
    BANK5           256      0       0
    BANK6           256      0       0
    BANK7           256      0       0

Pointer List with Targets:

    Keypad_GetKey@keypad	PTR struct . size(1) Largest target is 35
		 -> miTeclado(COMRAM[35]), 

    Keypad_Init@keymap	PTR unsigned char [4] size(1) Largest target is 16
		 -> teclas(BANK0[16]), 

    Keypad_Init@keypad	PTR struct . size(1) Largest target is 35
		 -> miTeclado(COMRAM[35]), 

    Keypad_IsPressed@keypad	PTR struct . size(1) Largest target is 35
		 -> miTeclado(COMRAM[35]), 

    Keypad_WaitForKey@keypad	PTR struct . size(1) Largest target is 35
		 -> miTeclado(COMRAM[35]), 

    lcd_print@str	PTR const unsigned char  size(1) Largest target is 16
		 -> STR_1(CODE[11]), STR_10(CODE[10]), STR_11(CODE[14]), STR_12(CODE[10]), 
		 -> STR_13(CODE[16]), STR_2(CODE[7]), STR_3(CODE[7]), STR_4(CODE[11]), 
		 -> STR_5(CODE[12]), STR_6(CODE[7]), STR_7(CODE[11]), STR_8(CODE[7]), 
		 -> STR_9(CODE[14]), 

    lcd_printCenter@str	PTR const unsigned char  size(1) Largest target is 16
		 -> STR_1(CODE[11]), STR_10(CODE[10]), STR_11(CODE[14]), STR_12(CODE[10]), 
		 -> STR_13(CODE[16]), STR_3(CODE[7]), STR_4(CODE[11]), STR_5(CODE[12]), 
		 -> STR_7(CODE[11]), STR_9(CODE[14]), 

    scanKeys@keypad	PTR struct . size(1) Largest target is 35
		 -> miTeclado(COMRAM[35]), 

    strlen@a	PTR const unsigned char  size(1) Largest target is 16
		 -> STR_1(CODE[11]), STR_10(CODE[10]), STR_11(CODE[14]), STR_12(CODE[10]), 
		 -> STR_13(CODE[16]), STR_3(CODE[7]), STR_4(CODE[11]), STR_5(CODE[12]), 
		 -> STR_7(CODE[11]), STR_9(CODE[14]), 

    strlen@s	PTR const unsigned char  size(1) Largest target is 16
		 -> STR_1(CODE[11]), STR_10(CODE[10]), STR_11(CODE[14]), STR_12(CODE[10]), 
		 -> STR_13(CODE[16]), STR_3(CODE[7]), STR_4(CODE[11]), STR_5(CODE[12]), 
		 -> STR_7(CODE[11]), STR_9(CODE[14]), 


Critical Paths under _main in COMRAM

    _main->_check_emergency_during_delay
    _subir->_emergency_stop_sequence
    _lcd_begin->_lcd_command
    _lcd_display->_lcd_command
    _check_emergency_during_delay->_emergency_stop_sequence
    _bajar->_emergency_stop_sequence
    _idle->_lcd_printNum
    _lcd_printNum->___aldiv
    _lcd_printCenter->___awdiv
    _lcd_setCursor->_lcd_command
    _lcd_print->_lcd_write
    _lcd_write->_lcd_write4bits
    _lcd_clear->_lcd_command
    _lcd_command->_lcd_write4bits
    _lcd_pulseEnable->_lcd_delay_us
    _Keypad_WaitForKey->_Keypad_GetKey
    _Keypad_GetKey->___lwdiv

Critical Paths under _main in BANK0

    None.

Critical Paths under _main in BANK1

    None.

Critical Paths under _main in BANK2

    None.

Critical Paths under _main in BANK3

    None.

Critical Paths under _main in BANK4

    None.

Critical Paths under _main in BANK5

    None.

Critical Paths under _main in BANK6

    None.

Critical Paths under _main in BANK7

    None.

Call Graph Tables:

 ---------------------------------------------------------------------------------
 (Depth) Function   	        Calls       Base Space   Used Autos Params    Refs
 ---------------------------------------------------------------------------------
 (0) _main                                                 1     1      0   41521
                                             39 COMRAM     1     1      0
                        _Keypad_Init
                   _Keypad_IsPressed
                  _Keypad_WaitForKey
                              _bajar
       _check_emergency_during_delay
            _emergency_stop_sequence
                               _idle
                          _lcd_begin
                          _lcd_clear
                    _lcd_printCenter
                              _subir
 ---------------------------------------------------------------------------------
 (1) _subir                                                4     4      0   11748
                                             34 COMRAM     4     4      0
                   _Keypad_IsPressed
            _emergency_stop_sequence
                               _idle
                          _lcd_clear
                          _lcd_print
                    _lcd_printCenter
                       _lcd_printNum
                      _lcd_setCursor
 ---------------------------------------------------------------------------------
 (1) _lcd_begin                                            2     1      1    1144
                                              5 COMRAM     2     1      1
                          _lcd_clear
                        _lcd_command
                       _lcd_delay_ms
                       _lcd_delay_us
                        _lcd_display
                     _lcd_write4bits
 ---------------------------------------------------------------------------------
 (2) _lcd_display                                          0     0      0     288
                        _lcd_command
 ---------------------------------------------------------------------------------
 (1) _check_emergency_during_delay                         5     3      2    5311
                                             34 COMRAM     5     3      2
                   _Keypad_IsPressed
                            ___lwdiv
            _emergency_stop_sequence
 ---------------------------------------------------------------------------------
 (1) _bajar                                                4     4      0   11748
                                             34 COMRAM     4     4      0
                   _Keypad_IsPressed
            _emergency_stop_sequence
                               _idle
                          _lcd_clear
                          _lcd_print
                    _lcd_printCenter
                       _lcd_printNum
                      _lcd_setCursor
 ---------------------------------------------------------------------------------
 (2) _emergency_stop_sequence                              2     2      0    4974
                                             32 COMRAM     2     2      0
                   _Keypad_IsPressed
                               _idle
                          _lcd_clear
                    _lcd_printCenter
 ---------------------------------------------------------------------------------
 (3) _idle                                                 0     0      0    3314
                          _lcd_clear
                          _lcd_print
                    _lcd_printCenter
                       _lcd_printNum
                      _lcd_setCursor
 ---------------------------------------------------------------------------------
 (4) _lcd_printNum                                        18    14      4    1103
                                             14 COMRAM    18    14      4
                            ___aldiv
                            ___almod
                          _lcd_write
 ---------------------------------------------------------------------------------
 (5) ___almod                                             10     2      8     298
                                              0 COMRAM    10     2      8
 ---------------------------------------------------------------------------------
 (5) ___aldiv                                             14     6      8     302
                                              0 COMRAM    14     6      8
 ---------------------------------------------------------------------------------
 (4) _lcd_printCenter                                      4     2      2    1222
                                              8 COMRAM     4     2      2
                            ___awdiv
                          _lcd_print
                      _lcd_setCursor
                             _strlen
 ---------------------------------------------------------------------------------
 (5) _strlen                                               3     1      2      92
                                              0 COMRAM     3     1      2
 ---------------------------------------------------------------------------------
 (5) _lcd_setCursor                                        2     1      1     421
                                              5 COMRAM     2     1      1
                        _lcd_command
 ---------------------------------------------------------------------------------
 (5) _lcd_print                                            1     0      1     252
                                              5 COMRAM     1     0      1
                          _lcd_write
 ---------------------------------------------------------------------------------
 (6) _lcd_write                                            1     1      0     202
                                              4 COMRAM     1     1      0
                     _lcd_write4bits
 ---------------------------------------------------------------------------------
 (5) ___awdiv                                              8     4      4     302
                                              0 COMRAM     8     4      4
 ---------------------------------------------------------------------------------
 (4) _lcd_clear                                            0     0      0     316
                        _lcd_command
                       _lcd_delay_ms
 ---------------------------------------------------------------------------------
 (6) _lcd_command                                          1     1      0     288
                                              4 COMRAM     1     1      0
                       _lcd_delay_ms
                     _lcd_write4bits
 ---------------------------------------------------------------------------------
 (7) _lcd_write4bits                                       2     2      0     144
                                              2 COMRAM     2     2      0
                    _lcd_pulseEnable
 ---------------------------------------------------------------------------------
 (8) _lcd_pulseEnable                                      0     0      0      28
                       _lcd_delay_us
 ---------------------------------------------------------------------------------
 (9) _lcd_delay_us                                         2     0      2      28
                                              0 COMRAM     2     0      2
 ---------------------------------------------------------------------------------
 (7) _lcd_delay_ms                                         3     1      2      28
                                              0 COMRAM     3     1      2
 ---------------------------------------------------------------------------------
 (3) _Keypad_IsPressed                                     4     2      2     122
                                              0 COMRAM     4     2      2
 ---------------------------------------------------------------------------------
 (1) _Keypad_WaitForKey                                    3     2      1    1087
                                             25 COMRAM     3     2      1
                      _Keypad_GetKey
 ---------------------------------------------------------------------------------
 (2) _Keypad_GetKey                                       18    17      1    1015
                                              7 COMRAM    18    17      1
                            ___lwdiv
                          _getMillis
                           _scanKeys
 ---------------------------------------------------------------------------------
 (3) _scanKeys                                             5     4      1     248
                                              0 COMRAM     5     4      1
 ---------------------------------------------------------------------------------
 (3) _getMillis                                            4     0      4       0
                                              0 COMRAM     4     0      4
 ---------------------------------------------------------------------------------
 (3) ___lwdiv                                              7     3      4     166
                                              0 COMRAM     7     3      4
 ---------------------------------------------------------------------------------
 (1) _Keypad_Init                                          4     2      2     512
                                              0 COMRAM     4     2      2
 ---------------------------------------------------------------------------------
 Estimated maximum stack depth 9
 ---------------------------------------------------------------------------------

 Call Graph Graphs:

 _main (ROOT)
   _Keypad_Init
   _Keypad_IsPressed
   _Keypad_WaitForKey
     _Keypad_GetKey
       ___lwdiv
       _getMillis
       _scanKeys
   _bajar
     _Keypad_IsPressed
     _emergency_stop_sequence
       _Keypad_IsPressed
       _idle
         _lcd_clear
           _lcd_command
             _lcd_delay_ms
             _lcd_write4bits
               _lcd_pulseEnable
                 _lcd_delay_us
           _lcd_delay_ms
         _lcd_print
           _lcd_write
             _lcd_write4bits
         _lcd_printCenter
           ___awdiv
           _lcd_print
           _lcd_setCursor
             _lcd_command
           _strlen
         _lcd_printNum
           ___aldiv
           ___almod
           _lcd_write
         _lcd_setCursor
       _lcd_clear
       _lcd_printCenter
     _idle
     _lcd_clear
     _lcd_print
     _lcd_printCenter
     _lcd_printNum
     _lcd_setCursor
   _check_emergency_during_delay
     _Keypad_IsPressed
     ___lwdiv
     _emergency_stop_sequence
   _emergency_stop_sequence
   _idle
   _lcd_begin
     _lcd_clear
     _lcd_command
     _lcd_delay_ms
     _lcd_delay_us
     _lcd_display
       _lcd_command
     _lcd_write4bits
   _lcd_clear
   _lcd_printCenter
   _subir
     _Keypad_IsPressed
     _emergency_stop_sequence
     _idle
     _lcd_clear
     _lcd_print
     _lcd_printCenter
     _lcd_printNum
     _lcd_setCursor

Address spaces:
Name               Size   Autos  Total    Usage
BIGRAM            2047      0       0      0.0%
BITBANK7           256      0       0      0.0%
BANK7              256      0       0      0.0%
BITBANK6           256      0       0      0.0%
BANK6              256      0       0      0.0%
BITBANK5           256      0       0      0.0%
BANK5              256      0       0      0.0%
BITBANK4           256      0       0      0.0%
BANK4              256      0       0      0.0%
BITBANK3           256      0       0      0.0%
BANK3              256      0       0      0.0%
BITBANK2           256      0       0      0.0%
BANK2              256      0       0      0.0%
BITBANK1           256      0       0      0.0%
BANK1              256      0       0      0.0%
BITBANK0           160      0       0      0.0%
BANK0              160      0      16     10.0%
BITCOMRAM           95      0       0      0.0%
COMRAM              95     40      95    100.0%
BITBIGSFRh          75      0       0      0.0%
BITBIGSFRlh         50      0       0      0.0%
BITBIGSFRll         33      0       0      0.0%
STACK                0      0       0      0.0%
DATA                 0      0     111      0.0%


Microchip Technology PIC18 Macro Assembler V3.10 build 20250813170317 
Symbol Table                                                                                   Fri Jan  9 08:30:35 2026

             __end_of_lcd_pulseEnable 1802                        ?_lcd_setCursor 0037  
                       lcd_begin@cols 0038                                    l21 0E38  
                                  l24 1840                                    l32 1306  
                                  l17 0D34                                    l61 17AC  
                                  l38 0A66                                    l54 15BE  
                                  l55 15C0                          ___awdiv@sign 0037  
                       lcd_begin@rows 0037                         ?_lcd_printNum 0040  
              Keypad_IsPressed@keypad 0032                                   l222 1778  
                                 l151 1414                                   l303 1250  
                                 l160 185A                                   l232 0F28  
                                 l145 17DA                                   l137 1806  
                                 l313 10D2                                   l139 1822  
                                 l163 139C                                   l148 1800  
                                 l236 1664                                   l324 1564  
                                 l157 16A8                                   l181 188C  
                                 l166 1870                                   l175 1744  
                                 l432 0D30                                   l290 16DC  
                                 l445 1012                                   l297 1486  
                                 l694 1192                                   l961 14F8  
                                 l954 14F0                                   u960 1822  
                                 u961 181E                                   u970 17DA  
                                 u971 17D6                                   u980 168C  
                                 u981 1688                                   u990 169E  
                                 u991 169A                                   wreg 0FE8  
                      ??_lcd_delay_ms 0034                        ??_lcd_delay_us 0034  
              __end_of_lcd_write4bits 1416                                  l1140 1710  
                                l2100 0C4C                                  l2030 17DC  
                                l2110 0C94                                  l2102 0C5A  
                                l2040 17B2                                  l2032 17DE  
                                l2200 115C                                  l2120 0CDE  
                                l2112 0C9C                                  l2104 0C6A  
                                l2042 17C0                                  l2026 1802  
                                l2034 17E8                                  l2050 166C  
                                l2210 1182                                  l2202 1164  
                                l2130 0D10                                  l2122 0CEE  
                                l2114 0CA8                                  l2106 0C6E  
                                l2300 1300                                  l2028 1808  
                                l2036 17F4                                  l2044 13A0  
                                l2052 167C                                  l2220 1864  
                                l2212 118A                                  l2204 1166  
                                l2060 1848                                  l2132 0D20  
                                l2124 0CF0                                  l2116 0CB6  
                                l2108 0C7E                                  l2140 0F3A  
                                l2302 1304                                  l2310 1584  
                                l2038 17AE                                  l2046 1410  
                                l2054 168C                                  l2206 116C  
                                l2062 1858                                  l2070 172E  
                                l2126 0CFA                                  l2118 0CC0  
                                l2150 0F82                                  l2142 0F4A  
                                l2230 0E60                                  l2222 0E3A  
                                l2312 159E                                  l2056 169E  
                                l2048 1668                                  l2216 185C  
                                l2208 1172                                  l2080 175C  
                                l2072 1732                                  l2064 1714  
                                l2128 0D00                                  l2160 0FD2  
                                l2152 0F8A                                  l2144 0F4E  
                                l2136 0F2A                                  l2240 0EF6  
                                l2232 0E92                                  l2224 0E3E  
                                l2320 16AE                                  l2400 1436  
                                l2410 0D32                                  l2330 14A0  
                                l2314 15BA                                  l2306 1566  
                                l2218 1862                                  l2058 1844  
                                l2074 1746                                  l2066 1726  
                                l2082 16DE                                  l2250 1624  
                                l2162 0FDC                                  l2154 0F96  
                                l2146 0F5C                                  l2138 0F2C  
                                l2242 0F02                                  l2234 0E94  
                                l2226 0E4C                                  l2322 16BA  
                                l2402 1452                                  l2420 0D36  
                                l2340 14DA                                  l2332 14A8  
                                l2260 1824                                  l2308 1568  
                                l2180 10F0                                  l2172 10D4  
                                l2076 174A                                  l2068 172A  
                                l2084 16E6                                  l2252 1626  
                                l2092 0C28                                  l2156 0FA4  
                                l2164 0FE2                                  l2148 0F6C  
                                l2244 0F08                                  l2236 0EC8  
                                l2228 0E50                                  l2324 16CC  
                                l2404 1454                                  l2500 1394  
                                l2430 0D7A                                  l2422 0D56  
                                l2342 14E2                                  l2334 14B0  
                                l2326 1488                                  l2262 1830  
                                l2350 087E                                  l2190 1122  
                                l2182 10FE                                  l2174 10D6  
                                l2078 175A                                  l2086 16E8  
                                l2254 1638                                  l2094 0C2A  
                                l2166 0FF2                                  l2158 0FC2  
                                l2246 0F18                                  l2238 0EE6  
                                l2318 16AA                                  l2406 146E  
                                l2510 11AC                                  l2502 1194  
                                l2440 0DFC                                  l2432 0DE8  
                                l2424 0D58                                  l2344 14E4  
                                l2336 14BE                                  l2328 148E  
                                l2272 1254                                  l2360 08FC  
                                l2352 0896                                  l2192 112A  
                                l2184 1106                                  l2176 10E4  
                                l2088 1704                                  l2256 1652  
                                l2248 1618                                  l2096 0C38  
                                l2168 1002                                  l2408 1482  
                                l2520 1206                                  l2512 11B6  
                                l2504 119A                                  l2442 0E08  
                                l2434 0DEC                                  l2426 0D68  
                                l2346 14EA                                  l2338 14C4  
                                l2274 1258                                  l2266 1252  
                                l2370 09B6                                  l2362 0918  
                                l2354 08A6                                  l2450 1780  
                                l2194 1132                                  l2186 110A  
                                l2178 10EC                                  l2258 165C  
                                l2098 0C48                                  l2530 1238  
                                l2514 11BE                                  l2506 119C  
                                l2444 0E14                                  l2436 0DEE  
                                l2428 0D6A                                  l2292 12DC  
                                l2284 128C                                  l2276 1282  
                                l2372 09D2                                  l2364 0986  
                                l2356 08F6                                  l2348 0874  
                                l2452 178A                                  l2196 1140  
                                l2188 1110                                  l2540 101C  
                                l2460 130A                                  l2532 1248  
                                l2524 120E                                  l2516 11D2  
                                l2508 11A0                                  l2446 0E26  
                                l2438 0DF0                                  l2294 12DE  
                                l2286 12C4                                  l2278 128A  
                                l2374 09EE                                  l2366 0998  
                                l2382 0A34                                  l2454 179A  
                                l2198 1146                                  l2550 1052  
                                l2542 1020                                  l2390 1884  
                                l2470 132A                                  l2462 131E  
                                l2534 124C                                  l2518 11EA  
                                l2526 1212                                  l2296 12EE  
                                l2288 12C8                                  l2376 09FC  
                                l2368 09A8                                  l2384 0A64  
                                l2456 17AA                                  l2448 177A  
                                l2392 1416                                  l2552 106A  
                                l2560 1092                                  l2544 102C  
                                l2536 1014                                  l2480 1342  
                                l2472 132E                                  l2464 1322  
                                l2528 1228                                  l2800 0A90  
                                l2298 12F0                                  l2378 0A18  
                                l2394 141A                                  l2562 10A8  
                                l2554 1086                                  l2546 1036  
                                l2538 101A                                  l2570 14FA  
                                l2490 136C                                  l2482 134C  
                                l2474 1338                                  l2466 1326  
                                l2802 0A94                                  l2396 141E  
                                l2564 10B8                                  l2548 103E  
                                l2572 1504                                  l2580 153C  
                                l2388 1882                                  l2492 1372  
                                l2484 1352                                  l2476 133A  
                                l2468 1328                                  l2820 0B14  
                                l2812 0AD6                                  l2804 0AB0  
                                l2398 142A                                  l2566 10C8  
                                l2558 108E                                  l2574 1520  
                                l2494 137C                                  l2486 135C  
                                l2478 133C                                  l2822 0B18  
                                l2814 0AEC                                  l2806 0AB8  
                                l2568 10CE                                  l2576 1528  
                                l2496 1388                                  l2488 1362  
                                l2840 0B8A                                  l2832 0B50  
                                l2824 0B24                                  l2816 0AFC  
                                l2808 0AC2                                  l2578 1538  
                                l2498 138C                                  l2842 0B8E  
                                l2834 0B62                                  l2826 0B30  
                                l2818 0B04                                  l2860 0BE6  
                                l2844 0B9A                                  l2836 0B72  
                                l2828 0B3C                                  l2862 0BF2  
                                l2854 0BC6                                  l2846 0BA6  
                                l2838 0B7A                                  l2856 0BD6  
                                l2848 0BB2                                  l2792 0A68  
                                l2858 0BDA                                  l2794 0A78  
                                l2868 0C06                                  l2796 0A82  
                                l2798 0A8E                                  STR_1 084F  
                                STR_2 0864                                  STR_3 086B  
                                STR_4 0844                                  STR_5 082D  
                                STR_6 0864                                  STR_7 0839  
                                STR_8 0864                                  STR_9 081F  
                                u1000 1726                                  u1001 1722  
                                u1010 1778                                  u1011 1774  
                                u1020 1704                                  u1100 0F5C  
                                u1021 1700                                  u1101 0F58  
                                u1030 0C38                                  u1110 0F82  
                                u1031 0C34                                  u1111 0F7E  
                                u1200 1182                                  u1040 0C5A  
                                u1120 0FA4                                  u1201 117E  
                                u1041 0C56                                  u1121 0FA0  
                                u1050 0C94                                  u1130 0FC2  
                                u1210 0E4C                                  u1051 0C90  
                                u1131 0FBE                                  u1211 0E48  
                                u1300 1300                                  u1060 0CB6  
                                u1140 0FF2                                  u1220 0EE6  
                                u1301 12FC                                  u1061 0CB2  
                                u1141 0FEE                                  u1221 0EE2  
                                u1310 1584                                  u1150 10E4  
                                u1070 0CDE                                  u1230 0EF6  
                                u1311 1580                                  u1151 10E0  
                                u1071 0CDA                                  u1231 0EF2  
                                u1400 09A8                                  u1320 159E  
                                u1160 10FE                                  u1080 0D10  
                                u1240 0F28                                  u1401 09A4  
                                u1321 159A                                  u1161 10FA  
                                u1081 0D0C                                  u1241 0F24  
                                u1410 09EE                                  u1330 15BA  
                                u1170 1122                                  u1250 1638  
                                u1090 0F3A                                  u1411 09EA  
                                u1331 15B6                                  u1171 111E  
                                u1251 1634                                  u1091 0F36  
                                u1340 14A0                                  u1180 1140  
                                u1420 1452                                  u1500 1086  
                                u1341 149C                                  u1181 113C  
                                u1421 144E                                  u1501 1082  
                                u1430 0D68                                  u1350 14BE  
                                u1190 115C                                  u1510 10A8  
                                u1431 0D64                                  u1351 14BA  
                                u1191 1158                                  u1511 10A4  
                                u1440 0D7A                                  u1360 14DA  
                                u1280 12C4                                  u1264 1276  
                                u1520 10B8                                  u1441 0D76  
                                u1361 14D6                                  u1281 12C0  
                                u1265 1272                                  u1521 10B4  
                                u1290 12EE                                  u1274 12AA  
                                u1370 08A6                                  u1450 17AA  
                                u1530 10C8                                  u1291 12EA  
                                u1275 12A6                                  u1371 08A2  
                                u1451 17A6                                  u1531 10C4  
                                u1380 0918                                  u1540 1520  
                                u1460 1206                                  u1381 0914  
                                u1541 151C                                  u1461 1202  
                                u1390 0986                                  u1550 1564  
                                u1470 1228                                  u1391 0982  
                                u1551 1560                                  u1471 1224  
                                u1480 1238                                  u1800 0AFC  
                                u1481 1234                                  u1801 0AF8  
                                u1490 1248                                  u1810 0B14  
                                u1491 1244                                  u1811 0B10  
                                u1820 0B4C                                  u1821 0B48  
                                u1830 0B62                                  u1831 0B5E  
                                u1840 0B72                                  u1841 0B6E  
                                u1850 0B8A                                  u1770 0AB0  
                                u1907 152E                                  u1851 0B86  
                                u1771 0AAC                                  u1860 0BC2  
                                u1780 0AD2                                  u1917 105C  
                                u1861 0BBE                                  u1781 0ACE  
                                u1870 0BD6                                  u1790 0AEC  
                                u1927 145E                                  u1871 0BD2  
                                u1791 0AE8                                  u1880 0C02  
                                u1937 1474                                  u1881 0BFE  
                                u1947 17B8                                  u1957 1790  
                                u1967 1284                                  u1897 11DC  
                                _idle 16AA                                  _main 0A68  
                                _piso 000C                                  fsr1h 0FE2  
                                fsr2h 0FDA                                  indf1 0FE7  
                                indf2 0FDF                                  fsr1l 0FE1  
                                fsr2l 0FD9                                  prodl 0FF3  
                                start 7FFC                          ___param_bank 0000  
                 lcd_write4bits@value 0035                        ??_lcd_printNum 0044  
                     __end_of___aldiv 0D32                                 ?_idle 0032  
                     __end_of___almod 1014                                 ?_main 0032  
                     __end_of___awdiv 1194                                 STR_10 085A  
                               STR_11 0811                                 STR_12 085A  
                               STR_13 0801                                 _CMCON 0FB4  
                      lcd_delay_ms@ms 0032                       ___awdiv@divisor 0034  
                     __end_of___lwdiv 14FA                        lcd_delay_us@us 0032  
                     ___awdiv@counter 0036                         ??_Keypad_Init 0034  
                               _PORTB 0F81                                 _TRISB 0F93  
                        lcd_print@str 0037               Keypad_WaitForKey@keypad 004B  
                               _bajar 1014                       ?_lcd_write4bits 0032  
                    ?_lcd_printCenter 003A                                 _subir 1194  
                               tablat 0FF5                                 status 0FD8  
       check_emergency_during_delay@i 0057                       __initialization 15C2  
                     ??_lcd_setCursor 0038                          __end_of_idle 16DE  
                        __end_of_main 0C28                      ?_lcd_pulseEnable 0032  
             _emergency_stop_sequence 1416                                ??_idle 0052  
                              ??_main 0059                         __activetblptr 0002  
                      lcd_command@cmd 0036                                ?_bajar 0032  
                              _ADCON1 0FC1                         _Keypad_GetKey 0874  
__end_of_check_emergency_during_delay 1566          _check_emergency_during_delay 14FA  
                    ___awdiv@dividend 0032                                ?_subir 0032  
                 __end_of_Keypad_Init 0E3A                                _OSCCON 0FD3  
              lcd_printNum@isNegative 0050                         lcd_printNum@i 0051  
                           ??___aldiv 003A                             ??___almod 003A  
                           ??___awdiv 0036                  __end_of_lcd_delay_ms 17DC  
                __end_of_lcd_delay_us 1824                             ??___lwdiv 0036  
                              clear_0 1608                      __end_of_scanKeys 1308  
                    ___awdiv@quotient 0038                                _teclas 0060  
                              isa$std 0001              lcd_setCursor@row_offsets 005A  
                              _strlen 16DE                          __pdataCOMRAM 005A  
                        __mediumconst 0800                                tblptrh 0FF7  
                              tblptrl 0FF6                                tblptru 0FF8  
                      ?_Keypad_GetKey 0039                           scanKeys@col 0036  
                         scanKeys@row 0035         ?_check_emergency_during_delay 0054  
                __end_of_lcd_printNum 0F2A                            __accesstop 0060  
             __end_of__initialization 160E                         ___rparam_used 0001  
           ??_emergency_stop_sequence 0052                        __pcstackCOMRAM 0032  
check_emergency_during_delay@delay_ms 0054                          __pidataBANK0 1872  
                       __end_of_bajar 10D4                         __end_of_subir 1252  
                    lcd_setCursor@col 0038                      lcd_setCursor@row 0037  
                         _Keypad_Init 0D32                               ??_bajar 0054  
                             ??_subir 0054                          Keypad_Init@i 0034  
                        Keypad_Init@j 0035                    lcd_printCenter@len 003D  
                  lcd_printCenter@pos 003C                    lcd_printCenter@row 003B  
                  lcd_printCenter@str 003A                            bajar@steps 0056  
                             ?_strlen 0032                      ??_lcd_write4bits 0034  
                     ??_Keypad_GetKey 003A                            _lcd_config 0001  
     __end_of_emergency_stop_sequence 1488                             ?_scanKeys 0032  
                 Keypad_GetKey@keypad 0039                     __end_of_getMillis 1842  
                             __Hparam 0000                               __Lparam 0000  
                   __end_of_lcd_begin 139E                     __end_of_lcd_clear 1872  
                    _Keypad_IsPressed 1566                               ___aldiv 0C28  
                             ___almod 0F2A                     __end_of_lcd_print 177A  
                             ___awdiv 10D4                     __end_of_lcd_write 185C  
                             ___lwdiv 1488                          __psmallconst 0800  
                             __pcinit 15C2                               __ramtop 0800  
                             __ptext0 0A68                               __ptext1 1194  
                             __ptext2 1308                               __ptext3 1882  
                             __ptext4 14FA                               __ptext5 1014  
                             __ptext6 1416                               __ptext7 16AA  
                             __ptext8 0E3A                               __ptext9 0F2A  
                    ___aldiv@dividend 0032                  end_of_initialization 160E  
                        _lcd_delay_ms 17AE                          _lcd_delay_us 1802  
                  lcd_printNum@buffer 0044                         __Lmediumconst 0000  
                          ??_scanKeys 0033                  _Keypad_IsPressed$156 0035  
                    ___aldiv@quotient 003C                               postdec1 0FE5  
                             postdec2 0FDD                               postinc0 0FEE  
                             postinc2 0FDE                 __end_of_lcd_setCursor 1746  
                             strlen@a 0034                               strlen@s 0032  
                        _lcd_printNum 0E3A                             _PORTDbits 0F83  
                           _TRISDbits 0F95                        lcd_write@value 0036  
            Keypad_GetKey@currentTime 0046                         ??_lcd_command 0036  
                       ??_lcd_display 0037                         __pidataCOMRAM 188E  
                        ?_Keypad_Init 0032                        __end_of_strlen 1712  
                 start_initialization 15C2                   __end_of_lcd_command 16AA  
                 __end_of_lcd_display 188E                           __pdataBANK0 0060  
                   ??_lcd_printCenter 003C                              ??_strlen 0034  
                         __pbssCOMRAM 0001              __end_of_Keypad_IsPressed 15C2  
                   ??_lcd_pulseEnable 0034              ?_emergency_stop_sequence 0032  
                    ___lwdiv@dividend 0032                              ?___aldiv 0032  
                            ?___almod 0032                             _getMillis 1824  
                            ?___awdiv 0032                              ?___lwdiv 0032  
                           _lcd_begin 1308                             _lcd_clear 185C  
                           _miTeclado 000F                      ___almod@dividend 0032  
                           _lcd_print 1746                             _lcd_write 1842  
                         __smallconst 0800                 __end_of_Keypad_GetKey 0A68  
                    ___lwdiv@quotient 0036                       ___aldiv@divisor 0036  
                     ___aldiv@counter 003A                           _lcd_command 1666  
                         _lcd_display 1882                            ?_getMillis 0032  
                          ?_lcd_begin 0037                            ?_lcd_clear 0032  
                          ?_lcd_print 0037                   Keypad_IsPressed@key 0033  
                          ?_lcd_write 0032                  Keypad_WaitForKey@key 004D  
                           main@tecla 0059                           _INTCON2bits 0FF1  
                           copy_data0 15D6                             copy_data1 15F6  
                          subir@steps 0056                              __Hrparam 0000  
                            __Lrparam 0000        ??_check_emergency_during_delay 0056  
                     lcd_printNum@num 0040                       ___lwdiv@divisor 0034  
                     ___lwdiv@counter 0038                              __ptext10 0C28  
                            __ptext11 1618                              __ptext20 17DC  
                            __ptext12 16DE                              __ptext21 1802  
                            __ptext13 1712                              __ptext22 17AE  
                            __ptext14 1746                              __ptext23 1566  
                            __ptext15 1842                              __ptext24 177A  
                            __ptext16 10D4                              __ptext25 0874  
                            __ptext17 185C                              __ptext26 1252  
                            __ptext18 1666                              __ptext27 1824  
                            __ptext19 139E                              __ptext28 1488  
                            __ptext29 0D32                       ___almod@divisor 0036  
                     ___almod@counter 003A                              _holdTime 005E  
                            _scanKeys 1252                       _lcd_printCenter 1618  
                            isa$xinst 0000                           ??_getMillis 0036  
                         ??_lcd_begin 0038                           ??_lcd_clear 0037  
                       _simple_millis 0008                           ??_lcd_print 0038  
                         ??_lcd_write 0036                     _Keypad_WaitForKey 177A  
                     _lcd_pulseEnable 17DC                        _emergency_stop 000E  
                  ?_Keypad_WaitForKey 004B                        scanKeys@keypad 0032  
                   ?_Keypad_IsPressed 0032                   ??_Keypad_WaitForKey 004C  
                  ??_Keypad_IsPressed 0034                      Keypad_GetKey@key 004A  
                       _lcd_setCursor 1712             __end_of_Keypad_WaitForKey 17AE  
                   Keypad_Init@keymap 0033                     Keypad_Init@keypad 0032  
                        ___aldiv@sign 003B               __end_of_lcd_printCenter 1666  
                       ?_lcd_delay_ms 0032                         ?_lcd_delay_us 0032  
                      _lcd_write4bits 139E                          ___almod@sign 003B  
                        ?_lcd_command 0032                          ?_lcd_display 0032  
